ARM GAS  C:\Users\rene_\AppData\Local\Temp\cc37xi8u.s 			page 1


   1              		.syntax unified
   2              		.cpu cortex-m3
   3              		.fpu softvfp
   4              		.eabi_attribute 20, 1
   5              		.eabi_attribute 21, 1
   6              		.eabi_attribute 23, 3
   7              		.eabi_attribute 24, 1
   8              		.eabi_attribute 25, 1
   9              		.eabi_attribute 26, 1
  10              		.eabi_attribute 30, 1
  11              		.eabi_attribute 34, 1
  12              		.eabi_attribute 18, 4
  13              		.thumb
  14              		.syntax unified
  15              		.file	"EVE.c"
  16              		.text
  17              	.Ltext0:
  18              		.cfi_sections	.debug_frame
  19              		.section	.text.EVE_BootUp,"ax",%progbits
  20              		.align	2
  21              		.global	EVE_BootUp
  22              		.thumb
  23              		.thumb_func
  24              		.type	EVE_BootUp, %function
  25              	EVE_BootUp:
  26              	.LFB64:
  27              		.file 1 "EVE.c"
   1:EVE.c         **** /* ========================================
   2:EVE.c         ****  *
   3:EVE.c         ****  * Copyright YOUR COMPANY, THE YEAR
   4:EVE.c         ****  * All Rights Reserved
   5:EVE.c         ****  * UNPUBLISHED, LICENSED SOFTWARE.
   6:EVE.c         ****  *
   7:EVE.c         ****  * CONFIDENTIAL AND PROPRIETARY INFORMATION
   8:EVE.c         ****  * WHICH IS THE PROPERTY OF your company.
   9:EVE.c         ****  *
  10:EVE.c         ****  * ========================================
  11:EVE.c         **** */
  12:EVE.c         **** 
  13:EVE.c         **** /***********************************************************************
  14:EVE.c         **** *! \file:                   EVE_HAL.h
  15:EVE.c         **** *  \projekt:                PSOC_EVE_Sensorboard
  16:EVE.c         **** *  \created on:             2020-02-12
  17:EVE.c         **** *  \author:                 R. Gräber
  18:EVE.c         **** *  \version:                0
  19:EVE.c         **** *  \history:                -
  20:EVE.c         **** *  \brief                   HAL - Hardware abstraction Layer, define Low Level
  21:EVE.c         ****                             Funtion here
  22:EVE.c         **** ***********************************************************************/
  23:EVE.c         **** 
  24:EVE.c         **** /***********************************************************************
  25:EVE.c         **** * Includes
  26:EVE.c         **** ***********************************************************************/
  27:EVE.c         **** #include "EVE.h"
  28:EVE.c         **** #include "Utils.h"
  29:EVE.c         **** #include "EVE_HAL.h"
  30:EVE.c         **** #include "copro_commands.h"
ARM GAS  C:\Users\rene_\AppData\Local\Temp\cc37xi8u.s 			page 2


  31:EVE.c         **** /***********************************************************************
  32:EVE.c         **** * Informations
  33:EVE.c         **** ***********************************************************************/
  34:EVE.c         **** //https://www.dyclassroom.com/c/c-pointers-and-two-dimensional-array
  35:EVE.c         **** 
  36:EVE.c         **** 
  37:EVE.c         **** /***********************************************************************
  38:EVE.c         **** * Global Variable
  39:EVE.c         **** ***********************************************************************/
  40:EVE.c         **** extern unsigned int dli,cli;
  41:EVE.c         **** unsigned int lum=100;
  42:EVE.c         **** extern U16 ms,sek,hr,min;
  43:EVE.c         **** /***********************************************************************
  44:EVE.c         **** * Constant
  45:EVE.c         **** ***********************************************************************/
  46:EVE.c         **** 
  47:EVE.c         **** /***********************************************************************
  48:EVE.c         **** * Local Variable
  49:EVE.c         **** ***********************************************************************/
  50:EVE.c         **** 
  51:EVE.c         **** U16 __ft_cmd_fifo_wp = 0; //FT800 coprocessor fifo write pointer
  52:EVE.c         **** 
  53:EVE.c         **** /***********************************************************************
  54:EVE.c         **** * Local Funtions
  55:EVE.c         **** ***********************************************************************/
  56:EVE.c         **** 
  57:EVE.c         **** /***********************************************************************
  58:EVE.c         **** *! \fn			U8 EVE_BootUp(void)
  59:EVE.c         **** *  \brief		Power Eve Device Up
  60:EVE.c         **** *  \param		none
  61:EVE.c         **** *  \exception	none
  62:EVE.c         **** *  \return		none
  63:EVE.c         **** ***********************************************************************/
  64:EVE.c         **** U8 EVE_BootUp(void){
  28              		.loc 1 64 0
  29              		.cfi_startproc
  30              		@ args = 0, pretend = 0, frame = 0
  31              		@ frame_needed = 0, uses_anonymous_args = 0
  32 0000 08B5     		push	{r3, lr}
  33              		.cfi_def_cfa_offset 8
  34              		.cfi_offset 3, -8
  35              		.cfi_offset 14, -4
  65:EVE.c         ****     unsigned int x;
  66:EVE.c         ****     init_EVE_IO(); 
  36              		.loc 1 66 0
  37 0002 FFF7FEFF 		bl	init_EVE_IO
  38              	.LVL0:
  67:EVE.c         ****   
  68:EVE.c         ****     EVE_Power(1); 
  39              		.loc 1 68 0
  40 0006 0120     		movs	r0, #1
  41 0008 FFF7FEFF 		bl	EVE_Power
  42              	.LVL1:
  69:EVE.c         ****     EVE_Power(0); 
  43              		.loc 1 69 0
  44 000c 0020     		movs	r0, #0
  45 000e FFF7FEFF 		bl	EVE_Power
ARM GAS  C:\Users\rene_\AppData\Local\Temp\cc37xi8u.s 			page 3


  46              	.LVL2:
  70:EVE.c         ****     for (x=0;x<1000000;x++);
  47              		.loc 1 70 0
  48 0012 0023     		movs	r3, #0
  49 0014 00E0     		b	.L2
  50              	.LVL3:
  51              	.L3:
  52              		.loc 1 70 0 is_stmt 0 discriminator 3
  53 0016 0133     		adds	r3, r3, #1
  54              	.LVL4:
  55              	.L2:
  56              		.loc 1 70 0 discriminator 1
  57 0018 094A     		ldr	r2, .L7
  58 001a 9342     		cmp	r3, r2
  59 001c FBD9     		bls	.L3
  71:EVE.c         ****     EVE_Power(1); 
  60              		.loc 1 71 0 is_stmt 1
  61 001e 0120     		movs	r0, #1
  62 0020 FFF7FEFF 		bl	EVE_Power
  63              	.LVL5:
  72:EVE.c         ****     for (x=0;x<1000000;x++);
  64              		.loc 1 72 0
  65 0024 0023     		movs	r3, #0
  66 0026 00E0     		b	.L4
  67              	.LVL6:
  68              	.L5:
  69              		.loc 1 72 0 is_stmt 0 discriminator 3
  70 0028 0133     		adds	r3, r3, #1
  71              	.LVL7:
  72              	.L4:
  73              		.loc 1 72 0 discriminator 1
  74 002a 054A     		ldr	r2, .L7
  75 002c 9342     		cmp	r3, r2
  76 002e FBD9     		bls	.L5
  73:EVE.c         ****     //<11MHz SPI-Clock
  74:EVE.c         ****     //read location 0 to wake up FT800
  75:EVE.c         ****     host_command(ACTIVE);
  77              		.loc 1 75 0 is_stmt 1
  78 0030 0020     		movs	r0, #0
  79 0032 FFF7FEFF 		bl	host_command
  80              	.LVL8:
  76:EVE.c         ****     //send command to change the PLL to external clock
  77:EVE.c         ****     host_command(CLKEXT);
  81              		.loc 1 77 0
  82 0036 4420     		movs	r0, #68
  83 0038 FFF7FEFF 		bl	host_command
  84              	.LVL9:
  78:EVE.c         ****     return OK;
  79:EVE.c         **** } 
  85              		.loc 1 79 0
  86 003c 0020     		movs	r0, #0
  87 003e 08BD     		pop	{r3, pc}
  88              	.L8:
  89              		.align	2
  90              	.L7:
  91 0040 3F420F00 		.word	999999
  92              		.cfi_endproc
ARM GAS  C:\Users\rene_\AppData\Local\Temp\cc37xi8u.s 			page 4


  93              	.LFE64:
  94              		.size	EVE_BootUp, .-EVE_BootUp
  95              		.section	.text.updatecmdfifo,"ax",%progbits
  96              		.align	2
  97              		.global	updatecmdfifo
  98              		.thumb
  99              		.thumb_func
 100              		.type	updatecmdfifo, %function
 101              	updatecmdfifo:
 102              	.LFB65:
  80:EVE.c         **** 
  81:EVE.c         **** /***********************************************************************
  82:EVE.c         **** *! \fn			void updatecmdfifo(U16 count)
  83:EVE.c         **** *  \brief		update the commands
  84:EVE.c         **** *  \param		U16 count
  85:EVE.c         **** *  \exception	none
  86:EVE.c         **** *  \return		none
  87:EVE.c         **** ***********************************************************************/
  88:EVE.c         **** void updatecmdfifo(U16 count){
 103              		.loc 1 88 0
 104              		.cfi_startproc
 105              		@ args = 0, pretend = 0, frame = 0
 106              		@ frame_needed = 0, uses_anonymous_args = 0
 107              	.LVL10:
 108 0000 08B5     		push	{r3, lr}
 109              		.cfi_def_cfa_offset 8
 110              		.cfi_offset 3, -8
 111              		.cfi_offset 14, -4
  89:EVE.c         ****   
  90:EVE.c         ****    __ft_cmd_fifo_wp  = (__ft_cmd_fifo_wp + count) & 4095;
 112              		.loc 1 90 0
 113 0002 074B     		ldr	r3, .L11
 114 0004 1968     		ldr	r1, [r3]
 115 0006 0844     		add	r0, r0, r1
 116              	.LVL11:
 117 0008 C0F30B01 		ubfx	r1, r0, #0, #12
  91:EVE.c         **** 
  92:EVE.c         ****    //4 byte alignment
  93:EVE.c         ****    __ft_cmd_fifo_wp = (__ft_cmd_fifo_wp + 3) & 0xffc;
 118              		.loc 1 93 0
 119 000c 0331     		adds	r1, r1, #3
 120 000e 21F00301 		bic	r1, r1, #3
 121 0012 0905     		lsls	r1, r1, #20
 122 0014 090D     		lsrs	r1, r1, #20
 123 0016 1960     		str	r1, [r3]
  94:EVE.c         ****    wr16(REG_CMD_WRITE,__ft_cmd_fifo_wp);
 124              		.loc 1 94 0
 125 0018 0248     		ldr	r0, .L11+4
 126 001a FFF7FEFF 		bl	wr16
 127              	.LVL12:
 128 001e 08BD     		pop	{r3, pc}
 129              	.L12:
 130              		.align	2
 131              	.L11:
 132 0020 00000000 		.word	.LANCHOR0
 133 0024 E8241000 		.word	1058024
 134              		.cfi_endproc
ARM GAS  C:\Users\rene_\AppData\Local\Temp\cc37xi8u.s 			page 5


 135              	.LFE65:
 136              		.size	updatecmdfifo, .-updatecmdfifo
 137              		.section	.text.waitcmdfifo_empty,"ax",%progbits
 138              		.align	2
 139              		.global	waitcmdfifo_empty
 140              		.thumb
 141              		.thumb_func
 142              		.type	waitcmdfifo_empty, %function
 143              	waitcmdfifo_empty:
 144              	.LFB66:
  95:EVE.c         **** 
  96:EVE.c         **** }
  97:EVE.c         **** 
  98:EVE.c         **** /***********************************************************************
  99:EVE.c         **** *! \fn			void waitcmdfifo_empty(void)
 100:EVE.c         **** *  \brief		Wait for the complete consumption of Coprocessor commands
 101:EVE.c         **** *  \param		none
 102:EVE.c         **** *  \exception	none
 103:EVE.c         **** *  \return		none
 104:EVE.c         **** ***********************************************************************/
 105:EVE.c         **** void waitcmdfifo_empty(void){
 145              		.loc 1 105 0
 146              		.cfi_startproc
 147              		@ args = 0, pretend = 0, frame = 0
 148              		@ frame_needed = 0, uses_anonymous_args = 0
 149 0000 10B5     		push	{r4, lr}
 150              		.cfi_def_cfa_offset 8
 151              		.cfi_offset 4, -8
 152              		.cfi_offset 14, -4
 153              	.L14:
 106:EVE.c         **** 	int cmdrdptr,cmdwrptr;
 107:EVE.c         **** 
 108:EVE.c         **** 	do{
 109:EVE.c         **** 		cmdrdptr = rd16(REG_CMD_READ);
 154              		.loc 1 109 0 discriminator 1
 155 0002 0748     		ldr	r0, .L16
 156 0004 FFF7FEFF 		bl	rd16
 157              	.LVL13:
 158 0008 0446     		mov	r4, r0
 159              	.LVL14:
 110:EVE.c         **** 		cmdwrptr = rd16(REG_CMD_WRITE);
 160              		.loc 1 110 0 discriminator 1
 161 000a 0648     		ldr	r0, .L16+4
 162              	.LVL15:
 163 000c FFF7FEFF 		bl	rd16
 164              	.LVL16:
 111:EVE.c         **** 	}while (cmdwrptr != cmdrdptr);
 165              		.loc 1 111 0 discriminator 1
 166 0010 8442     		cmp	r4, r0
 167 0012 F6D1     		bne	.L14
 112:EVE.c         ****     __ft_cmd_fifo_wp =rd16(REG_CMD_WRITE);
 168              		.loc 1 112 0
 169 0014 0348     		ldr	r0, .L16+4
 170              	.LVL17:
 171 0016 FFF7FEFF 		bl	rd16
 172              	.LVL18:
 173 001a 034B     		ldr	r3, .L16+8
ARM GAS  C:\Users\rene_\AppData\Local\Temp\cc37xi8u.s 			page 6


 174 001c 1860     		str	r0, [r3]
 175 001e 10BD     		pop	{r4, pc}
 176              	.LVL19:
 177              	.L17:
 178              		.align	2
 179              	.L16:
 180 0020 E4241000 		.word	1058020
 181 0024 E8241000 		.word	1058024
 182 0028 00000000 		.word	.LANCHOR0
 183              		.cfi_endproc
 184              	.LFE66:
 185              		.size	waitcmdfifo_empty, .-waitcmdfifo_empty
 186              		.section	.text.recover_co_processor,"ax",%progbits
 187              		.align	2
 188              		.global	recover_co_processor
 189              		.thumb
 190              		.thumb_func
 191              		.type	recover_co_processor, %function
 192              	recover_co_processor:
 193              	.LFB67:
 113:EVE.c         **** }
 114:EVE.c         **** /***********************************************************************
 115:EVE.c         **** *! \fn			void recover_co_processor(void)
 116:EVE.c         **** *  \brief		co processor in defin state
 117:EVE.c         **** *  \param		none
 118:EVE.c         **** *  \exception	none
 119:EVE.c         **** *  \return		none
 120:EVE.c         **** ***********************************************************************/
 121:EVE.c         **** void recover_co_processor(void){
 194              		.loc 1 121 0
 195              		.cfi_startproc
 196              		@ args = 0, pretend = 0, frame = 0
 197              		@ frame_needed = 0, uses_anonymous_args = 0
 198 0000 10B5     		push	{r4, lr}
 199              		.cfi_def_cfa_offset 8
 200              		.cfi_offset 4, -8
 201              		.cfi_offset 14, -4
 122:EVE.c         ****     wr8(REG_CPURESET,1);
 202              		.loc 1 122 0
 203 0002 094C     		ldr	r4, .L20
 204 0004 0121     		movs	r1, #1
 205 0006 2046     		mov	r0, r4
 206 0008 FFF7FEFF 		bl	wr8
 207              	.LVL20:
 123:EVE.c         ****     wr32(REG_CMD_WRITE,0);
 208              		.loc 1 123 0
 209 000c 0021     		movs	r1, #0
 210 000e 0748     		ldr	r0, .L20+4
 211 0010 FFF7FEFF 		bl	wr32
 212              	.LVL21:
 124:EVE.c         ****     wr32(REG_CMD_READ,0);
 213              		.loc 1 124 0
 214 0014 0021     		movs	r1, #0
 215 0016 0648     		ldr	r0, .L20+8
 216 0018 FFF7FEFF 		bl	wr32
 217              	.LVL22:
 125:EVE.c         ****     wr8(REG_CPURESET,0);
ARM GAS  C:\Users\rene_\AppData\Local\Temp\cc37xi8u.s 			page 7


 218              		.loc 1 125 0
 219 001c 0021     		movs	r1, #0
 220 001e 2046     		mov	r0, r4
 221 0020 FFF7FEFF 		bl	wr8
 222              	.LVL23:
 223 0024 10BD     		pop	{r4, pc}
 224              	.L21:
 225 0026 00BF     		.align	2
 226              	.L20:
 227 0028 1C241000 		.word	1057820
 228 002c E8241000 		.word	1058024
 229 0030 E4241000 		.word	1058020
 230              		.cfi_endproc
 231              	.LFE67:
 232              		.size	recover_co_processor, .-recover_co_processor
 233              		.section	.text.play_sound,"ax",%progbits
 234              		.align	2
 235              		.global	play_sound
 236              		.thumb
 237              		.thumb_func
 238              		.type	play_sound, %function
 239              	play_sound:
 240              	.LFB68:
 126:EVE.c         **** }
 127:EVE.c         **** 
 128:EVE.c         **** /***********************************************************************
 129:EVE.c         **** *! \fn			void play_sound(U8 sound, U8 note, U8 volume)
 130:EVE.c         **** *  \brief		play an note on defind volume
 131:EVE.c         **** *  \param		U8 sound, U8 note, U8 volume
 132:EVE.c         **** *  \exception	none
 133:EVE.c         **** *  \return		none
 134:EVE.c         **** ***********************************************************************/
 135:EVE.c         **** void play_sound(U8 sound, U8 note, U8 volume){
 241              		.loc 1 135 0
 242              		.cfi_startproc
 243              		@ args = 0, pretend = 0, frame = 0
 244              		@ frame_needed = 0, uses_anonymous_args = 0
 245              	.LVL24:
 246 0000 38B5     		push	{r3, r4, r5, lr}
 247              		.cfi_def_cfa_offset 16
 248              		.cfi_offset 3, -16
 249              		.cfi_offset 4, -12
 250              		.cfi_offset 5, -8
 251              		.cfi_offset 14, -4
 252 0002 0446     		mov	r4, r0
 253 0004 0D46     		mov	r5, r1
 136:EVE.c         ****     
 137:EVE.c         ****     wr8(REG_VOL_SOUND,volume);
 254              		.loc 1 137 0
 255 0006 1146     		mov	r1, r2
 256              	.LVL25:
 257 0008 0648     		ldr	r0, .L24
 258              	.LVL26:
 259 000a FFF7FEFF 		bl	wr8
 260              	.LVL27:
 138:EVE.c         ****     wr16(REG_SOUND,sound|(note<<8));
 261              		.loc 1 138 0
ARM GAS  C:\Users\rene_\AppData\Local\Temp\cc37xi8u.s 			page 8


 262 000e 44EA0521 		orr	r1, r4, r5, lsl #8
 263 0012 0548     		ldr	r0, .L24+4
 264 0014 FFF7FEFF 		bl	wr16
 265              	.LVL28:
 139:EVE.c         ****     wr8(REG_PLAY,1);
 266              		.loc 1 139 0
 267 0018 0121     		movs	r1, #1
 268 001a 0448     		ldr	r0, .L24+8
 269 001c FFF7FEFF 		bl	wr8
 270              	.LVL29:
 271 0020 38BD     		pop	{r3, r4, r5, pc}
 272              	.L25:
 273 0022 00BF     		.align	2
 274              	.L24:
 275 0024 80241000 		.word	1057920
 276 0028 84241000 		.word	1057924
 277 002c 88241000 		.word	1057928
 278              		.cfi_endproc
 279              	.LFE68:
 280              		.size	play_sound, .-play_sound
 281              		.section	.text.TFT_off,"ax",%progbits
 282              		.align	2
 283              		.global	TFT_off
 284              		.thumb
 285              		.thumb_func
 286              		.type	TFT_off, %function
 287              	TFT_off:
 288              	.LFB69:
 140:EVE.c         ****   
 141:EVE.c         **** }  
 142:EVE.c         **** 
 143:EVE.c         **** /***********************************************************************
 144:EVE.c         **** *! \fn			void TFT_off(void)
 145:EVE.c         **** *  \brief		TFT Off
 146:EVE.c         **** *  \param		none
 147:EVE.c         **** *  \exception	none
 148:EVE.c         **** *  \return		none
 149:EVE.c         **** ***********************************************************************/
 150:EVE.c         **** void TFT_off(void){
 289              		.loc 1 150 0
 290              		.cfi_startproc
 291              		@ args = 0, pretend = 0, frame = 0
 292              		@ frame_needed = 0, uses_anonymous_args = 0
 293 0000 08B5     		push	{r3, lr}
 294              		.cfi_def_cfa_offset 8
 295              		.cfi_offset 3, -8
 296              		.cfi_offset 14, -4
 151:EVE.c         ****     wr8(REG_GPIO,0x00);      //Bit7 low
 297              		.loc 1 151 0
 298 0002 0021     		movs	r1, #0
 299 0004 0148     		ldr	r0, .L28
 300 0006 FFF7FEFF 		bl	wr8
 301              	.LVL30:
 302 000a 08BD     		pop	{r3, pc}
 303              	.L29:
 304              		.align	2
 305              	.L28:
ARM GAS  C:\Users\rene_\AppData\Local\Temp\cc37xi8u.s 			page 9


 306 000c 90241000 		.word	1057936
 307              		.cfi_endproc
 308              	.LFE69:
 309              		.size	TFT_off, .-TFT_off
 310              		.section	.text.TFT_on,"ax",%progbits
 311              		.align	2
 312              		.global	TFT_on
 313              		.thumb
 314              		.thumb_func
 315              		.type	TFT_on, %function
 316              	TFT_on:
 317              	.LFB70:
 152:EVE.c         **** }  
 153:EVE.c         **** 
 154:EVE.c         **** /***********************************************************************
 155:EVE.c         **** *! \fn			void TFT_on(void)
 156:EVE.c         **** *  \brief		TFT On
 157:EVE.c         **** *  \param		none
 158:EVE.c         **** *  \exception	none
 159:EVE.c         **** *  \return		none
 160:EVE.c         **** ***********************************************************************/
 161:EVE.c         **** void TFT_on(void){
 318              		.loc 1 161 0
 319              		.cfi_startproc
 320              		@ args = 0, pretend = 0, frame = 0
 321              		@ frame_needed = 0, uses_anonymous_args = 0
 322 0000 08B5     		push	{r3, lr}
 323              		.cfi_def_cfa_offset 8
 324              		.cfi_offset 3, -8
 325              		.cfi_offset 14, -4
 162:EVE.c         ****     wr8(REG_GPIO,0x80);      //Bit7 high
 326              		.loc 1 162 0
 327 0002 8021     		movs	r1, #128
 328 0004 0148     		ldr	r0, .L32
 329 0006 FFF7FEFF 		bl	wr8
 330              	.LVL31:
 331 000a 08BD     		pop	{r3, pc}
 332              	.L33:
 333              		.align	2
 334              	.L32:
 335 000c 90241000 		.word	1057936
 336              		.cfi_endproc
 337              	.LFE70:
 338              		.size	TFT_on, .-TFT_on
 339              		.section	.text.TFT_dim,"ax",%progbits
 340              		.align	2
 341              		.global	TFT_dim
 342              		.thumb
 343              		.thumb_func
 344              		.type	TFT_dim, %function
 345              	TFT_dim:
 346              	.LFB71:
 163:EVE.c         **** }
 164:EVE.c         **** /***********************************************************************
 165:EVE.c         **** *! \fn			void TFT_dim(U8 percent)
 166:EVE.c         **** *  \brief		TFT dimm
 167:EVE.c         **** *  \param		U8 percent
ARM GAS  C:\Users\rene_\AppData\Local\Temp\cc37xi8u.s 			page 10


 168:EVE.c         **** *  \exception	none
 169:EVE.c         **** *  \return		none
 170:EVE.c         **** ***********************************************************************/
 171:EVE.c         **** void TFT_dim(U8 percent){
 347              		.loc 1 171 0
 348              		.cfi_startproc
 349              		@ args = 0, pretend = 0, frame = 0
 350              		@ frame_needed = 0, uses_anonymous_args = 0
 351              	.LVL32:
 352 0000 08B5     		push	{r3, lr}
 353              		.cfi_def_cfa_offset 8
 354              		.cfi_offset 3, -8
 355              		.cfi_offset 14, -4
 172:EVE.c         ****     wr16(REG_PWM_DUTY,(100-percent)*0x80/100);
 356              		.loc 1 172 0
 357 0002 C0F16400 		rsb	r0, r0, #100
 358              	.LVL33:
 359 0006 C001     		lsls	r0, r0, #7
 360 0008 0449     		ldr	r1, .L36
 361 000a 81FB0031 		smull	r3, r1, r1, r0
 362 000e C017     		asrs	r0, r0, #31
 363 0010 C0EB6111 		rsb	r1, r0, r1, asr #5
 364 0014 0248     		ldr	r0, .L36+4
 365 0016 FFF7FEFF 		bl	wr16
 366              	.LVL34:
 367 001a 08BD     		pop	{r3, pc}
 368              	.L37:
 369              		.align	2
 370              	.L36:
 371 001c 1F85EB51 		.word	1374389535
 372 0020 C4241000 		.word	1057988
 373              		.cfi_endproc
 374              	.LFE71:
 375              		.size	TFT_dim, .-TFT_dim
 376              		.section	.text.TFT_fadeout,"ax",%progbits
 377              		.align	2
 378              		.global	TFT_fadeout
 379              		.thumb
 380              		.thumb_func
 381              		.type	TFT_fadeout, %function
 382              	TFT_fadeout:
 383              	.LFB72:
 173:EVE.c         **** }  
 174:EVE.c         **** 
 175:EVE.c         **** /***********************************************************************
 176:EVE.c         **** *! \fn			void TFT_fadeout(U16 zeit)
 177:EVE.c         **** *  \brief		TFT fade out
 178:EVE.c         **** *  \param		U16 zeit
 179:EVE.c         **** *  \exception	none
 180:EVE.c         **** *  \return		none
 181:EVE.c         **** ***********************************************************************/
 182:EVE.c         **** void TFT_fadeout(U16 zeit){
 384              		.loc 1 182 0
 385              		.cfi_startproc
 386              		@ args = 0, pretend = 0, frame = 0
 387              		@ frame_needed = 0, uses_anonymous_args = 0
 388              	.LVL35:
ARM GAS  C:\Users\rene_\AppData\Local\Temp\cc37xi8u.s 			page 11


 389 0000 38B5     		push	{r3, r4, r5, lr}
 390              		.cfi_def_cfa_offset 16
 391              		.cfi_offset 3, -16
 392              		.cfi_offset 4, -12
 393              		.cfi_offset 5, -8
 394              		.cfi_offset 14, -4
 395 0002 0546     		mov	r5, r0
 183:EVE.c         ****     U8 x;
 184:EVE.c         ****     x=lum;
 396              		.loc 1 184 0
 397 0004 074B     		ldr	r3, .L42
 398 0006 1B78     		ldrb	r3, [r3]	@ zero_extendqisi2
 399              	.LVL36:
 185:EVE.c         ****     while(x--){
 400              		.loc 1 185 0
 401 0008 06E0     		b	.L39
 402              	.LVL37:
 403              	.L40:
 186:EVE.c         ****         delay_ms(zeit);
 404              		.loc 1 186 0
 405 000a 2846     		mov	r0, r5
 406 000c FFF7FEFF 		bl	delay_ms
 407              	.LVL38:
 187:EVE.c         ****         TFT_dim(x);
 408              		.loc 1 187 0
 409 0010 2046     		mov	r0, r4
 410 0012 FFF7FEFF 		bl	TFT_dim
 411              	.LVL39:
 185:EVE.c         ****     while(x--){
 412              		.loc 1 185 0
 413 0016 2346     		mov	r3, r4
 414              	.LVL40:
 415              	.L39:
 416 0018 5C1E     		subs	r4, r3, #1
 417 001a E4B2     		uxtb	r4, r4
 418              	.LVL41:
 419 001c 002B     		cmp	r3, #0
 420 001e F4D1     		bne	.L40
 188:EVE.c         ****     } 
 189:EVE.c         **** }
 421              		.loc 1 189 0
 422 0020 38BD     		pop	{r3, r4, r5, pc}
 423              	.LVL42:
 424              	.L43:
 425 0022 00BF     		.align	2
 426              	.L42:
 427 0024 00000000 		.word	.LANCHOR1
 428              		.cfi_endproc
 429              	.LFE72:
 430              		.size	TFT_fadeout, .-TFT_fadeout
 431              		.section	.text.TFT_fadein,"ax",%progbits
 432              		.align	2
 433              		.global	TFT_fadein
 434              		.thumb
 435              		.thumb_func
 436              		.type	TFT_fadein, %function
 437              	TFT_fadein:
ARM GAS  C:\Users\rene_\AppData\Local\Temp\cc37xi8u.s 			page 12


 438              	.LFB73:
 190:EVE.c         **** 
 191:EVE.c         **** /***********************************************************************
 192:EVE.c         **** *! \fn			void TFT_fadein(U16 zeit)
 193:EVE.c         **** *  \brief		TFT fade in
 194:EVE.c         **** *  \param		U16 zeit
 195:EVE.c         **** *  \exception	none
 196:EVE.c         **** *  \return		none
 197:EVE.c         **** ***********************************************************************/
 198:EVE.c         **** void TFT_fadein(U16 zeit){
 439              		.loc 1 198 0
 440              		.cfi_startproc
 441              		@ args = 0, pretend = 0, frame = 0
 442              		@ frame_needed = 0, uses_anonymous_args = 0
 443              	.LVL43:
 444 0000 38B5     		push	{r3, r4, r5, lr}
 445              		.cfi_def_cfa_offset 16
 446              		.cfi_offset 3, -16
 447              		.cfi_offset 4, -12
 448              		.cfi_offset 5, -8
 449              		.cfi_offset 14, -4
 450 0002 0546     		mov	r5, r0
 451              	.LVL44:
 199:EVE.c         ****     U8 x;
 200:EVE.c         ****     for(x=0;x<=lum;x++){
 452              		.loc 1 200 0
 453 0004 0024     		movs	r4, #0
 454 0006 07E0     		b	.L45
 455              	.LVL45:
 456              	.L46:
 201:EVE.c         ****         delay_ms(zeit);
 457              		.loc 1 201 0 discriminator 3
 458 0008 2846     		mov	r0, r5
 459 000a FFF7FEFF 		bl	delay_ms
 460              	.LVL46:
 202:EVE.c         ****         TFT_dim(x);
 461              		.loc 1 202 0 discriminator 3
 462 000e 2046     		mov	r0, r4
 463 0010 FFF7FEFF 		bl	TFT_dim
 464              	.LVL47:
 200:EVE.c         ****         delay_ms(zeit);
 465              		.loc 1 200 0 discriminator 3
 466 0014 0134     		adds	r4, r4, #1
 467              	.LVL48:
 468 0016 E4B2     		uxtb	r4, r4
 469              	.LVL49:
 470              	.L45:
 200:EVE.c         ****         delay_ms(zeit);
 471              		.loc 1 200 0 is_stmt 0 discriminator 1
 472 0018 024B     		ldr	r3, .L48
 473 001a 1B68     		ldr	r3, [r3]
 474 001c 9C42     		cmp	r4, r3
 475 001e F3D9     		bls	.L46
 203:EVE.c         ****     } 
 204:EVE.c         **** }
 476              		.loc 1 204 0 is_stmt 1
 477 0020 38BD     		pop	{r3, r4, r5, pc}
ARM GAS  C:\Users\rene_\AppData\Local\Temp\cc37xi8u.s 			page 13


 478              	.LVL50:
 479              	.L49:
 480 0022 00BF     		.align	2
 481              	.L48:
 482 0024 00000000 		.word	.LANCHOR1
 483              		.cfi_endproc
 484              	.LFE73:
 485              		.size	TFT_fadein, .-TFT_fadein
 486              		.section	.text.dl,"ax",%progbits
 487              		.align	2
 488              		.global	dl
 489              		.thumb
 490              		.thumb_func
 491              		.type	dl, %function
 492              	dl:
 493              	.LFB74:
 205:EVE.c         **** 
 206:EVE.c         **** /***********************************************************************
 207:EVE.c         **** *! \fn			void dl(unsigned long cmd)
 208:EVE.c         **** *  \brief		load data
 209:EVE.c         **** *  \param		unsigned long cmd
 210:EVE.c         **** *  \exception	none
 211:EVE.c         **** *  \return		none
 212:EVE.c         **** ***********************************************************************/
 213:EVE.c         **** void dl(unsigned long cmd){
 494              		.loc 1 213 0
 495              		.cfi_startproc
 496              		@ args = 0, pretend = 0, frame = 0
 497              		@ frame_needed = 0, uses_anonymous_args = 0
 498              	.LVL51:
 499 0000 10B5     		push	{r4, lr}
 500              		.cfi_def_cfa_offset 8
 501              		.cfi_offset 4, -8
 502              		.cfi_offset 14, -4
 214:EVE.c         ****     wr32(RAM_DL+dli,cmd);
 503              		.loc 1 214 0
 504 0002 054C     		ldr	r4, .L52
 505 0004 2368     		ldr	r3, [r4]
 506 0006 0146     		mov	r1, r0
 507 0008 03F58010 		add	r0, r3, #1048576
 508              	.LVL52:
 509 000c FFF7FEFF 		bl	wr32
 510              	.LVL53:
 215:EVE.c         ****     dli+=4;
 511              		.loc 1 215 0
 512 0010 2368     		ldr	r3, [r4]
 513 0012 0433     		adds	r3, r3, #4
 514 0014 2360     		str	r3, [r4]
 515 0016 10BD     		pop	{r4, pc}
 516              	.L53:
 517              		.align	2
 518              	.L52:
 519 0018 00000000 		.word	dli
 520              		.cfi_endproc
 521              	.LFE74:
 522              		.size	dl, .-dl
 523              		.section	.text.video_timing,"ax",%progbits
ARM GAS  C:\Users\rene_\AppData\Local\Temp\cc37xi8u.s 			page 14


 524              		.align	2
 525              		.global	video_timing
 526              		.thumb
 527              		.thumb_func
 528              		.type	video_timing, %function
 529              	video_timing:
 530              	.LFB75:
 216:EVE.c         **** }  
 217:EVE.c         **** 
 218:EVE.c         **** /***********************************************************************
 219:EVE.c         **** *! \fn			void video_timing(void)
 220:EVE.c         **** *  \brief		setup video timing
 221:EVE.c         **** *  \param		none
 222:EVE.c         **** *  \exception	none
 223:EVE.c         **** *  \return		none
 224:EVE.c         **** ***********************************************************************/
 225:EVE.c         **** void video_timing(void){
 531              		.loc 1 225 0
 532              		.cfi_startproc
 533              		@ args = 0, pretend = 0, frame = 0
 534              		@ frame_needed = 0, uses_anonymous_args = 0
 535 0000 08B5     		push	{r3, lr}
 536              		.cfi_def_cfa_offset 8
 537              		.cfi_offset 3, -8
 538              		.cfi_offset 14, -4
 226:EVE.c         ****     #ifdef ET0350
 227:EVE.c         ****         wr16(REG_HCYCLE,408);
 228:EVE.c         ****         wr16(REG_HOFFSET,33);
 229:EVE.c         ****         wr16(REG_HSIZE,320);
 230:EVE.c         ****         wr16(REG_HSYNC0,0);
 231:EVE.c         ****         wr16(REG_HSYNC1,30);
 232:EVE.c         ****         wr16(REG_VCYCLE,263);
 233:EVE.c         ****         wr16(REG_VOFFSET,4);
 234:EVE.c         ****         wr16(REG_VSIZE,240);
 235:EVE.c         ****         wr16(REG_VSYNC0,0);
 236:EVE.c         ****        wr16(REG_VSYNC1,3);
 237:EVE.c         ****     #endif
 238:EVE.c         ****   
 239:EVE.c         ****     #ifdef ET0430
 240:EVE.c         ****         wr16(REG_HCYCLE,548);
 539              		.loc 1 240 0
 540 0002 4FF40971 		mov	r1, #548
 541 0006 2B48     		ldr	r0, .L56
 542 0008 FFF7FEFF 		bl	wr16
 543              	.LVL54:
 241:EVE.c         ****         wr16(REG_HOFFSET,43);
 544              		.loc 1 241 0
 545 000c 2B21     		movs	r1, #43
 546 000e 2A48     		ldr	r0, .L56+4
 547 0010 FFF7FEFF 		bl	wr16
 548              	.LVL55:
 242:EVE.c         ****         wr16(REG_HSIZE,480);
 549              		.loc 1 242 0
 550 0014 4FF4F071 		mov	r1, #480
 551 0018 2848     		ldr	r0, .L56+8
 552 001a FFF7FEFF 		bl	wr16
 553              	.LVL56:
ARM GAS  C:\Users\rene_\AppData\Local\Temp\cc37xi8u.s 			page 15


 243:EVE.c         ****         wr16(REG_HSYNC0,0);
 554              		.loc 1 243 0
 555 001e 0021     		movs	r1, #0
 556 0020 2748     		ldr	r0, .L56+12
 557 0022 FFF7FEFF 		bl	wr16
 558              	.LVL57:
 244:EVE.c         ****         wr16(REG_HSYNC1,41);
 559              		.loc 1 244 0
 560 0026 2921     		movs	r1, #41
 561 0028 2648     		ldr	r0, .L56+16
 562 002a FFF7FEFF 		bl	wr16
 563              	.LVL58:
 245:EVE.c         ****         wr16(REG_VCYCLE,292);
 564              		.loc 1 245 0
 565 002e 4FF49271 		mov	r1, #292
 566 0032 2548     		ldr	r0, .L56+20
 567 0034 FFF7FEFF 		bl	wr16
 568              	.LVL59:
 246:EVE.c         ****         wr16(REG_VOFFSET,12);
 569              		.loc 1 246 0
 570 0038 0C21     		movs	r1, #12
 571 003a 2448     		ldr	r0, .L56+24
 572 003c FFF7FEFF 		bl	wr16
 573              	.LVL60:
 247:EVE.c         ****         wr16(REG_VSIZE,272);
 574              		.loc 1 247 0
 575 0040 4FF48871 		mov	r1, #272
 576 0044 2248     		ldr	r0, .L56+28
 577 0046 FFF7FEFF 		bl	wr16
 578              	.LVL61:
 248:EVE.c         ****         wr16(REG_VSYNC0,0);
 579              		.loc 1 248 0
 580 004a 0021     		movs	r1, #0
 581 004c 2148     		ldr	r0, .L56+32
 582 004e FFF7FEFF 		bl	wr16
 583              	.LVL62:
 249:EVE.c         ****         wr16(REG_VSYNC1,10);
 584              		.loc 1 249 0
 585 0052 0A21     		movs	r1, #10
 586 0054 2048     		ldr	r0, .L56+36
 587 0056 FFF7FEFF 		bl	wr16
 588              	.LVL63:
 250:EVE.c         ****     #endif
 251:EVE.c         ****   
 252:EVE.c         ****   
 253:EVE.c         ****   
 254:EVE.c         ****   
 255:EVE.c         ****     wr16(REG_PWM_HZ,1000);
 589              		.loc 1 255 0
 590 005a 4FF47A71 		mov	r1, #1000
 591 005e 1F48     		ldr	r0, .L56+40
 592 0060 FFF7FEFF 		bl	wr16
 593              	.LVL64:
 256:EVE.c         ****     TFT_dim(lum);
 594              		.loc 1 256 0
 595 0064 1E4B     		ldr	r3, .L56+44
 596 0066 1878     		ldrb	r0, [r3]	@ zero_extendqisi2
ARM GAS  C:\Users\rene_\AppData\Local\Temp\cc37xi8u.s 			page 16


 597 0068 FFF7FEFF 		bl	TFT_dim
 598              	.LVL65:
 257:EVE.c         ****   
 258:EVE.c         ****     wr8(REG_GPIO_DIR,0x80);  //Bit7 output
 599              		.loc 1 258 0
 600 006c 8021     		movs	r1, #128
 601 006e 1D48     		ldr	r0, .L56+48
 602 0070 FFF7FEFF 		bl	wr8
 603              	.LVL66:
 259:EVE.c         ****     wr8(REG_GPIO,0x80);      //Bit7 high
 604              		.loc 1 259 0
 605 0074 8021     		movs	r1, #128
 606 0076 1C48     		ldr	r0, .L56+52
 607 0078 FFF7FEFF 		bl	wr8
 608              	.LVL67:
 260:EVE.c         ****   
 261:EVE.c         ****     wr32(RAM_DL,CLEAR_COLOR_RGB(0,0,0));
 609              		.loc 1 261 0
 610 007c 4FF00071 		mov	r1, #33554432
 611 0080 4FF48010 		mov	r0, #1048576
 612 0084 FFF7FEFF 		bl	wr32
 613              	.LVL68:
 262:EVE.c         ****     wr32(RAM_DL+4,CLEAR(1,1,1));
 614              		.loc 1 262 0
 615 0088 1849     		ldr	r1, .L56+56
 616 008a 1948     		ldr	r0, .L56+60
 617 008c FFF7FEFF 		bl	wr32
 618              	.LVL69:
 263:EVE.c         ****     wr32(RAM_DL+8,DISPLAY());
 619              		.loc 1 263 0
 620 0090 0021     		movs	r1, #0
 621 0092 1848     		ldr	r0, .L56+64
 622 0094 FFF7FEFF 		bl	wr32
 623              	.LVL70:
 264:EVE.c         ****     wr32(REG_DLSWAP,DLSWAP_FRAME);
 624              		.loc 1 264 0
 625 0098 0221     		movs	r1, #2
 626 009a 1748     		ldr	r0, .L56+68
 627 009c FFF7FEFF 		bl	wr32
 628              	.LVL71:
 265:EVE.c         ****   
 266:EVE.c         ****     #ifdef ET0350
 267:EVE.c         ****         wr16(REG_PCLK,7); 
 268:EVE.c         ****     #endif
 269:EVE.c         ****   
 270:EVE.c         ****     #ifdef ET0430
 271:EVE.c         ****         wr16(REG_PCLK,5); 
 629              		.loc 1 271 0
 630 00a0 0521     		movs	r1, #5
 631 00a2 1648     		ldr	r0, .L56+72
 632 00a4 FFF7FEFF 		bl	wr16
 633              	.LVL72:
 272:EVE.c         ****     #endif
 273:EVE.c         ****   
 274:EVE.c         ****     //pause is necessary
 275:EVE.c         ****     delay_ms(1000);
 634              		.loc 1 275 0
ARM GAS  C:\Users\rene_\AppData\Local\Temp\cc37xi8u.s 			page 17


 635 00a8 4FF47A70 		mov	r0, #1000
 636 00ac FFF7FEFF 		bl	delay_ms
 637              	.LVL73:
 638 00b0 08BD     		pop	{r3, pc}
 639              	.L57:
 640 00b2 00BF     		.align	2
 641              	.L56:
 642 00b4 28241000 		.word	1057832
 643 00b8 2C241000 		.word	1057836
 644 00bc 30241000 		.word	1057840
 645 00c0 34241000 		.word	1057844
 646 00c4 38241000 		.word	1057848
 647 00c8 3C241000 		.word	1057852
 648 00cc 40241000 		.word	1057856
 649 00d0 44241000 		.word	1057860
 650 00d4 48241000 		.word	1057864
 651 00d8 4C241000 		.word	1057868
 652 00dc C0241000 		.word	1057984
 653 00e0 00000000 		.word	.LANCHOR1
 654 00e4 8C241000 		.word	1057932
 655 00e8 90241000 		.word	1057936
 656 00ec 07000026 		.word	637534215
 657 00f0 04001000 		.word	1048580
 658 00f4 08001000 		.word	1048584
 659 00f8 50241000 		.word	1057872
 660 00fc 6C241000 		.word	1057900
 661              		.cfi_endproc
 662              	.LFE75:
 663              		.size	video_timing, .-video_timing
 664              		.section	.text.read_CHIPID,"ax",%progbits
 665              		.align	2
 666              		.global	read_CHIPID
 667              		.thumb
 668              		.thumb_func
 669              		.type	read_CHIPID, %function
 670              	read_CHIPID:
 671              	.LFB76:
 276:EVE.c         **** }  
 277:EVE.c         **** 
 278:EVE.c         **** /***********************************************************************
 279:EVE.c         **** *! \fn			U32 read_CHIPID(void)
 280:EVE.c         **** *  \brief		read Chip ID
 281:EVE.c         **** *  \param		none
 282:EVE.c         **** *  \exception	none
 283:EVE.c         **** *  \return		U32 Chip ID
 284:EVE.c         **** ***********************************************************************/
 285:EVE.c         **** U32 read_CHIPID(void){
 672              		.loc 1 285 0
 673              		.cfi_startproc
 674              		@ args = 0, pretend = 0, frame = 0
 675              		@ frame_needed = 0, uses_anonymous_args = 0
 676 0000 08B5     		push	{r3, lr}
 677              		.cfi_def_cfa_offset 8
 678              		.cfi_offset 3, -8
 679              		.cfi_offset 14, -4
 286:EVE.c         ****     return (rd32(ROM_CHIPID));
 680              		.loc 1 286 0
ARM GAS  C:\Users\rene_\AppData\Local\Temp\cc37xi8u.s 			page 18


 681 0002 4FF44020 		mov	r0, #786432
 682 0006 FFF7FEFF 		bl	rd32
 683              	.LVL74:
 287:EVE.c         **** }     
 684              		.loc 1 287 0
 685 000a 08BD     		pop	{r3, pc}
 686              		.cfi_endproc
 687              	.LFE76:
 688              		.size	read_CHIPID, .-read_CHIPID
 689              		.section	.text.Touch,"ax",%progbits
 690              		.align	2
 691              		.global	Touch
 692              		.thumb
 693              		.thumb_func
 694              		.type	Touch, %function
 695              	Touch:
 696              	.LFB77:
 288:EVE.c         **** 
 289:EVE.c         **** /***********************************************************************
 290:EVE.c         **** *! \fn			void Touch(void)
 291:EVE.c         **** *  \brief		callibrate the touchscreen
 292:EVE.c         **** *  \param		none
 293:EVE.c         **** *  \exception	none
 294:EVE.c         **** *  \return		none
 295:EVE.c         **** ***********************************************************************/
 296:EVE.c         **** void Touch(void){
 697              		.loc 1 296 0
 698              		.cfi_startproc
 699              		@ args = 0, pretend = 0, frame = 0
 700              		@ frame_needed = 0, uses_anonymous_args = 0
 701 0000 70B5     		push	{r4, r5, r6, lr}
 702              		.cfi_def_cfa_offset 16
 703              		.cfi_offset 4, -16
 704              		.cfi_offset 5, -12
 705              		.cfi_offset 6, -8
 706              		.cfi_offset 14, -4
 707 0002 82B0     		sub	sp, sp, #8
 708              		.cfi_def_cfa_offset 24
 297:EVE.c         ****         
 298:EVE.c         ****     cli = 0;
 709              		.loc 1 298 0
 710 0004 164E     		ldr	r6, .L62
 711 0006 0024     		movs	r4, #0
 712 0008 3460     		str	r4, [r6]
 299:EVE.c         ****     cmd_dlstart();
 713              		.loc 1 299 0
 714 000a FFF7FEFF 		bl	cmd_dlstart
 715              	.LVL75:
 300:EVE.c         ****     cmd(CLEAR(1,1,1));
 716              		.loc 1 300 0
 717 000e 1548     		ldr	r0, .L62+4
 718 0010 FFF7FEFF 		bl	cmd
 719              	.LVL76:
 301:EVE.c         ****     cmd(COLOR_RGB(255,255,255));
 720              		.loc 1 301 0
 721 0014 6FF07B40 		mvn	r0, #-83886080
 722 0018 FFF7FEFF 		bl	cmd
ARM GAS  C:\Users\rene_\AppData\Local\Temp\cc37xi8u.s 			page 19


 723              	.LVL77:
 302:EVE.c         ****     cmd_text(80,30,27,OPT_CENTERY,"Please tap on the dot"); 
 724              		.loc 1 302 0
 725 001c 124B     		ldr	r3, .L62+8
 726 001e 0093     		str	r3, [sp]
 727 0020 4FF48063 		mov	r3, #1024
 728 0024 1B22     		movs	r2, #27
 729 0026 1E21     		movs	r1, #30
 730 0028 5020     		movs	r0, #80
 731 002a FFF7FEFF 		bl	cmd_text
 732              	.LVL78:
 303:EVE.c         ****     cmd_calibrate();
 733              		.loc 1 303 0
 734 002e FFF7FEFF 		bl	cmd_calibrate
 735              	.LVL79:
 304:EVE.c         ****     cmd_swap();
 736              		.loc 1 304 0
 737 0032 FFF7FEFF 		bl	cmd_swap
 738              	.LVL80:
 305:EVE.c         ****     wr32(REG_CMD_WRITE,cli);
 739              		.loc 1 305 0
 740 0036 0D4D     		ldr	r5, .L62+12
 741 0038 3168     		ldr	r1, [r6]
 742 003a 2846     		mov	r0, r5
 743 003c FFF7FEFF 		bl	wr32
 744              	.LVL81:
 306:EVE.c         ****     /* Wait till coprocessor completes the operation */
 307:EVE.c         ****     waitcmdfifo_empty();
 745              		.loc 1 307 0
 746 0040 FFF7FEFF 		bl	waitcmdfifo_empty
 747              	.LVL82:
 308:EVE.c         ****     wr32(REG_CMD_WRITE,0);
 748              		.loc 1 308 0
 749 0044 2146     		mov	r1, r4
 750 0046 2846     		mov	r0, r5
 751 0048 FFF7FEFF 		bl	wr32
 752              	.LVL83:
 309:EVE.c         ****     wr32(REG_CMD_READ,0);
 753              		.loc 1 309 0
 754 004c 2146     		mov	r1, r4
 755 004e 0848     		ldr	r0, .L62+16
 756 0050 FFF7FEFF 		bl	wr32
 757              	.LVL84:
 310:EVE.c         ****     delay_ms(100);
 758              		.loc 1 310 0
 759 0054 6420     		movs	r0, #100
 760 0056 FFF7FEFF 		bl	delay_ms
 761              	.LVL85:
 311:EVE.c         **** }        
 762              		.loc 1 311 0
 763 005a 02B0     		add	sp, sp, #8
 764              		.cfi_def_cfa_offset 16
 765              		@ sp needed
 766 005c 70BD     		pop	{r4, r5, r6, pc}
 767              	.L63:
 768 005e 00BF     		.align	2
 769              	.L62:
ARM GAS  C:\Users\rene_\AppData\Local\Temp\cc37xi8u.s 			page 20


 770 0060 00000000 		.word	cli
 771 0064 07000026 		.word	637534215
 772 0068 00000000 		.word	.LC0
 773 006c E8241000 		.word	1058024
 774 0070 E4241000 		.word	1058020
 775              		.cfi_endproc
 776              	.LFE77:
 777              		.size	Touch, .-Touch
 778              		.section	.text.Logo,"ax",%progbits
 779              		.align	2
 780              		.global	Logo
 781              		.thumb
 782              		.thumb_func
 783              		.type	Logo, %function
 784              	Logo:
 785              	.LFB78:
 312:EVE.c         **** 
 313:EVE.c         **** /***********************************************************************
 314:EVE.c         **** *! \fn			void Logo(void)
 315:EVE.c         **** *  \brief		draw FTDI Logi
 316:EVE.c         **** *  \param		none
 317:EVE.c         **** *  \exception	none
 318:EVE.c         **** *  \return		none
 319:EVE.c         **** ***********************************************************************/
 320:EVE.c         **** void Logo(void){
 786              		.loc 1 320 0
 787              		.cfi_startproc
 788              		@ args = 0, pretend = 0, frame = 0
 789              		@ frame_needed = 0, uses_anonymous_args = 0
 790 0000 70B5     		push	{r4, r5, r6, lr}
 791              		.cfi_def_cfa_offset 16
 792              		.cfi_offset 4, -16
 793              		.cfi_offset 5, -12
 794              		.cfi_offset 6, -8
 795              		.cfi_offset 14, -4
 321:EVE.c         **** 	cli = 0;
 796              		.loc 1 321 0
 797 0002 0E4E     		ldr	r6, .L66
 798 0004 0024     		movs	r4, #0
 799 0006 3460     		str	r4, [r6]
 322:EVE.c         ****     cmd_dlstart();
 800              		.loc 1 322 0
 801 0008 FFF7FEFF 		bl	cmd_dlstart
 802              	.LVL86:
 323:EVE.c         ****     cmd_logo();
 803              		.loc 1 323 0
 804 000c FFF7FEFF 		bl	cmd_logo
 805              	.LVL87:
 324:EVE.c         ****     //wr32(REG_DLSWAP,1);
 325:EVE.c         ****     cmd_swap();
 806              		.loc 1 325 0
 807 0010 FFF7FEFF 		bl	cmd_swap
 808              	.LVL88:
 326:EVE.c         ****     wr32(REG_CMD_WRITE,cli); 
 809              		.loc 1 326 0
 810 0014 0A4D     		ldr	r5, .L66+4
 811 0016 3168     		ldr	r1, [r6]
ARM GAS  C:\Users\rene_\AppData\Local\Temp\cc37xi8u.s 			page 21


 812 0018 2846     		mov	r0, r5
 813 001a FFF7FEFF 		bl	wr32
 814              	.LVL89:
 327:EVE.c         ****     /* Wait till coprocessor completes the operation */
 328:EVE.c         **** 	waitcmdfifo_empty();
 815              		.loc 1 328 0
 816 001e FFF7FEFF 		bl	waitcmdfifo_empty
 817              	.LVL90:
 329:EVE.c         ****     wr32(REG_CMD_WRITE,0);
 818              		.loc 1 329 0
 819 0022 2146     		mov	r1, r4
 820 0024 2846     		mov	r0, r5
 821 0026 FFF7FEFF 		bl	wr32
 822              	.LVL91:
 330:EVE.c         ****     wr32(REG_CMD_READ,0); 
 823              		.loc 1 330 0
 824 002a 2146     		mov	r1, r4
 825 002c 0548     		ldr	r0, .L66+8
 826 002e FFF7FEFF 		bl	wr32
 827              	.LVL92:
 331:EVE.c         ****     delay_ms(5000);
 828              		.loc 1 331 0
 829 0032 41F28830 		movw	r0, #5000
 830 0036 FFF7FEFF 		bl	delay_ms
 831              	.LVL93:
 832 003a 70BD     		pop	{r4, r5, r6, pc}
 833              	.L67:
 834              		.align	2
 835              	.L66:
 836 003c 00000000 		.word	cli
 837 0040 E8241000 		.word	1058024
 838 0044 E4241000 		.word	1058020
 839              		.cfi_endproc
 840              	.LFE78:
 841              		.size	Logo, .-Logo
 842              		.global	__ft_cmd_fifo_wp
 843              		.global	lum
 844              		.data
 845              		.align	2
 846              		.set	.LANCHOR1,. + 0
 847              		.type	lum, %object
 848              		.size	lum, 4
 849              	lum:
 850 0000 64000000 		.word	100
 851              		.section	.rodata.str1.4,"aMS",%progbits,1
 852              		.align	2
 853              	.LC0:
 854 0000 506C6561 		.ascii	"Please tap on the dot\000"
 854      73652074 
 854      6170206F 
 854      6E207468 
 854      6520646F 
 855              		.bss
 856              		.align	2
 857              		.set	.LANCHOR0,. + 0
 858              		.type	__ft_cmd_fifo_wp, %object
 859              		.size	__ft_cmd_fifo_wp, 4
ARM GAS  C:\Users\rene_\AppData\Local\Temp\cc37xi8u.s 			page 22


 860              	__ft_cmd_fifo_wp:
 861 0000 00000000 		.space	4
 862              		.text
 863              	.Letext0:
 864              		.file 2 "c:\\program files (x86)\\cypress\\psoc creator\\4.2\\psoc creator\\import\\gnu\\arm\\5.4.
 865              		.file 3 "c:\\program files (x86)\\cypress\\psoc creator\\4.2\\psoc creator\\import\\gnu\\arm\\5.4.
 866              		.file 4 "Generated_Source\\PSoC5/core_cm3.h"
 867              		.file 5 "EVE_HAL.h"
 868              		.file 6 "timing.h"
 869              		.file 7 "copro_commands.h"