ARM GAS  C:\Users\rene_\AppData\Local\Temp\cctRgEGh.s 			page 1


   1              		.syntax unified
   2              		.cpu cortex-m3
   3              		.fpu softvfp
   4              		.eabi_attribute 20, 1
   5              		.eabi_attribute 21, 1
   6              		.eabi_attribute 23, 3
   7              		.eabi_attribute 24, 1
   8              		.eabi_attribute 25, 1
   9              		.eabi_attribute 26, 1
  10              		.eabi_attribute 30, 1
  11              		.eabi_attribute 34, 1
  12              		.eabi_attribute 18, 4
  13              		.thumb
  14              		.syntax unified
  15              		.file	"EVE_HAL.c"
  16              		.text
  17              	.Ltext0:
  18              		.cfi_sections	.debug_frame
  19              		.section	.text.enable_EVE,"ax",%progbits
  20              		.align	2
  21              		.global	enable_EVE
  22              		.thumb
  23              		.thumb_func
  24              		.type	enable_EVE, %function
  25              	enable_EVE:
  26              	.LFB0:
  27              		.file 1 "EVE_HAL.c"
   1:EVE_HAL.c     **** /* ========================================
   2:EVE_HAL.c     ****  *
   3:EVE_HAL.c     ****  * Copyright YOUR COMPANY, THE YEAR
   4:EVE_HAL.c     ****  * All Rights Reserved
   5:EVE_HAL.c     ****  * UNPUBLISHED, LICENSED SOFTWARE.
   6:EVE_HAL.c     ****  *
   7:EVE_HAL.c     ****  * CONFIDENTIAL AND PROPRIETARY INFORMATION
   8:EVE_HAL.c     ****  * WHICH IS THE PROPERTY OF your company.
   9:EVE_HAL.c     ****  *
  10:EVE_HAL.c     ****  * ========================================
  11:EVE_HAL.c     **** */
  12:EVE_HAL.c     **** /***********************************************************************
  13:EVE_HAL.c     **** *! \file:                   EVE_HAL.h
  14:EVE_HAL.c     **** *  \projekt:                PSOC_EVE_Sensorboard
  15:EVE_HAL.c     **** *  \created on:             2020-02-12
  16:EVE_HAL.c     **** *  \author:                 R. Gräber
  17:EVE_HAL.c     **** *  \version:                0
  18:EVE_HAL.c     **** *  \history:                -
  19:EVE_HAL.c     **** *  \brief                   HAL - Hardware abstraction Layer, define Low Level
  20:EVE_HAL.c     ****                             Funtion here
  21:EVE_HAL.c     **** ***********************************************************************/
  22:EVE_HAL.c     **** 
  23:EVE_HAL.c     **** /***********************************************************************
  24:EVE_HAL.c     **** * Includes
  25:EVE_HAL.c     **** ***********************************************************************/
  26:EVE_HAL.c     **** #include "EVE_HAL.h"
  27:EVE_HAL.c     **** #include "SPI_EVE.h"
  28:EVE_HAL.c     **** #include "Utils.h"
  29:EVE_HAL.c     **** #include "SS_EVE.h"
  30:EVE_HAL.c     **** /***********************************************************************
ARM GAS  C:\Users\rene_\AppData\Local\Temp\cctRgEGh.s 			page 2


  31:EVE_HAL.c     **** * Informations
  32:EVE_HAL.c     **** ***********************************************************************/
  33:EVE_HAL.c     **** //https://www.dyclassroom.com/c/c-pointers-and-two-dimensional-array
  34:EVE_HAL.c     **** /***********************************************************************
  35:EVE_HAL.c     **** * Local Funtions
  36:EVE_HAL.c     **** ***********************************************************************/
  37:EVE_HAL.c     **** void enable_EVE(eve_enable_t enable);
  38:EVE_HAL.c     **** void SPI_WRITE (U8 wert);
  39:EVE_HAL.c     **** /***********************************************************************
  40:EVE_HAL.c     **** * Global Variable
  41:EVE_HAL.c     **** ***********************************************************************/
  42:EVE_HAL.c     **** 
  43:EVE_HAL.c     **** /***********************************************************************
  44:EVE_HAL.c     **** * Constant
  45:EVE_HAL.c     **** ***********************************************************************/
  46:EVE_HAL.c     **** 
  47:EVE_HAL.c     **** ////////////// Values for MEMORY_ACCESS_CONTROL register ///////////////////////
  48:EVE_HAL.c     **** #define DEG0_NORMAL                 0x08
  49:EVE_HAL.c     **** #define DEG0_BMP                    0x88
  50:EVE_HAL.c     **** #define DEG90_NORMAL                0xA8
  51:EVE_HAL.c     **** #define DEG90_BMP                   0xE8
  52:EVE_HAL.c     **** #define DEG180_NORMAL               0xC8      
  53:EVE_HAL.c     **** #define DEG180_BMP                  0x48
  54:EVE_HAL.c     **** #define DEG270_NORMAL               0x68
  55:EVE_HAL.c     **** #define DEG270_BMP                  0x28
  56:EVE_HAL.c     **** 
  57:EVE_HAL.c     **** 
  58:EVE_HAL.c     **** 
  59:EVE_HAL.c     **** #define ft_pgm_read_byte(x)         (*(x))
  60:EVE_HAL.c     **** 
  61:EVE_HAL.c     **** #define Pi                          3.14159
  62:EVE_HAL.c     **** //////////////////// SPI Transfer description byte /////////////////////////////
  63:EVE_HAL.c     **** 
  64:EVE_HAL.c     **** //#define ID 1					// Use this if BS0 is connected to High
  65:EVE_HAL.c     **** #define ID 0					// Use this if BS0 is connected to low
  66:EVE_HAL.c     **** 
  67:EVE_HAL.c     **** ///////////////////////////////////////////////////////////////////////////////
  68:EVE_HAL.c     **** 
  69:EVE_HAL.c     **** 
  70:EVE_HAL.c     **** 
  71:EVE_HAL.c     **** ////////////////////////////// Display Variables ///////////////////////////////
  72:EVE_HAL.c     **** 
  73:EVE_HAL.c     **** 
  74:EVE_HAL.c     **** U8 fdhdgg[]={60,80,62,80,64,80,65,80,67,80,0,0};
  75:EVE_HAL.c     **** unsigned int                       dli,cli;
  76:EVE_HAL.c     **** extern U32 currfreq;// = 40;
  77:EVE_HAL.c     **** 
  78:EVE_HAL.c     **** 
  79:EVE_HAL.c     **** /***********************************************************************
  80:EVE_HAL.c     **** *! \fn			void enable_EVE(eve_enable_t enable)
  81:EVE_HAL.c     **** *  \brief		Set or Reset PowerDown Pin
  82:EVE_HAL.c     **** *  \param		eve_enable_t enable - 0 = Powerdowen
  83:EVE_HAL.c     **** *  \exception	none
  84:EVE_HAL.c     **** *  \return		none
  85:EVE_HAL.c     **** ***********************************************************************/
  86:EVE_HAL.c     **** void enable_EVE(eve_enable_t enable){
  28              		.loc 1 86 0
ARM GAS  C:\Users\rene_\AppData\Local\Temp\cctRgEGh.s 			page 3


  29              		.cfi_startproc
  30              		@ args = 0, pretend = 0, frame = 0
  31              		@ frame_needed = 0, uses_anonymous_args = 0
  32              		@ link register save eliminated.
  33              	.LVL0:
  34 0000 7047     		bx	lr
  35              		.cfi_endproc
  36              	.LFE0:
  37              		.size	enable_EVE, .-enable_EVE
  38 0002 00BF     		.section	.text.SelectChipOnOff,"ax",%progbits
  39              		.align	2
  40              		.global	SelectChipOnOff
  41              		.thumb
  42              		.thumb_func
  43              		.type	SelectChipOnOff, %function
  44              	SelectChipOnOff:
  45              	.LFB1:
  87:EVE_HAL.c     ****     
  88:EVE_HAL.c     ****     if(enable){
  89:EVE_HAL.c     ****         //Power Up FT Pin
  90:EVE_HAL.c     ****     }else{
  91:EVE_HAL.c     ****         //Power Down FT Pin
  92:EVE_HAL.c     ****     }
  93:EVE_HAL.c     ****     
  94:EVE_HAL.c     **** }
  95:EVE_HAL.c     ****     
  96:EVE_HAL.c     **** 
  97:EVE_HAL.c     **** /***********************************************************************
  98:EVE_HAL.c     **** *! \fn			void enable_EVE(eve_enable_t enable)
  99:EVE_HAL.c     **** *  \brief		SelectChip (switch CSN Signal)
 100:EVE_HAL.c     **** *  \param		U8 ChipOnOff
 101:EVE_HAL.c     **** *  \exception	none
 102:EVE_HAL.c     **** *  \return		none
 103:EVE_HAL.c     **** ***********************************************************************/
 104:EVE_HAL.c     **** void SelectChipOnOff(U8 ChipOnOff){
  46              		.loc 1 104 0
  47              		.cfi_startproc
  48              		@ args = 0, pretend = 0, frame = 0
  49              		@ frame_needed = 0, uses_anonymous_args = 0
  50              	.LVL1:
  51              		.loc 1 104 0
  52 0000 08B5     		push	{r3, lr}
  53              		.cfi_def_cfa_offset 8
  54              		.cfi_offset 3, -8
  55              		.cfi_offset 14, -4
  56              	.LVL2:
 105:EVE_HAL.c     ****     unsigned char go=1;
 106:EVE_HAL.c     ****     U32 timeout=1000000;
 107:EVE_HAL.c     ****         if (ChipOnOff == ChipOn){
  57              		.loc 1 107 0
  58 0002 0128     		cmp	r0, #1
  59 0004 02D1     		bne	.L3
 108:EVE_HAL.c     ****             //Select SPI Slave
 109:EVE_HAL.c     ****             //EVE_CS_on;
 110:EVE_HAL.c     ****             SS_EVE_Write(1);
  60              		.loc 1 110 0
  61 0006 FFF7FEFF 		bl	SS_EVE_Write
ARM GAS  C:\Users\rene_\AppData\Local\Temp\cctRgEGh.s 			page 4


  62              	.LVL3:
  63 000a 08BD     		pop	{r3, pc}
  64              	.LVL4:
  65              	.L3:
 111:EVE_HAL.c     ****         }
 112:EVE_HAL.c     ****         else if (ChipOnOff == ChipOff){
  66              		.loc 1 112 0
  67 000c 20B1     		cbz	r0, .L8
  68 000e 08BD     		pop	{r3, pc}
  69              	.LVL5:
  70              	.L7:
 113:EVE_HAL.c     ****             while(go){
 114:EVE_HAL.c     ****                 timeout--;
 115:EVE_HAL.c     ****                 if(timeout==0)
  71              		.loc 1 115 0
  72 0010 013B     		subs	r3, r3, #1
  73              	.LVL6:
  74 0012 03D1     		bne	.L5
 116:EVE_HAL.c     ****                     go=0;    
  75              		.loc 1 116 0
  76 0014 0022     		movs	r2, #0
  77              	.LVL7:
  78 0016 01E0     		b	.L5
  79              	.LVL8:
  80              	.L8:
  81 0018 034B     		ldr	r3, .L11
  82 001a 0122     		movs	r2, #1
  83              	.LVL9:
  84              	.L5:
 113:EVE_HAL.c     ****             while(go){
  85              		.loc 1 113 0
  86 001c 002A     		cmp	r2, #0
  87 001e F7D1     		bne	.L7
 117:EVE_HAL.c     ****             } 
 118:EVE_HAL.c     ****         //deselect SPI Slave
 119:EVE_HAL.c     ****         SS_EVE_Write(0);
  88              		.loc 1 119 0
  89 0020 0020     		movs	r0, #0
  90              	.LVL10:
  91 0022 FFF7FEFF 		bl	SS_EVE_Write
  92              	.LVL11:
  93 0026 08BD     		pop	{r3, pc}
  94              	.L12:
  95              		.align	2
  96              	.L11:
  97 0028 40420F00 		.word	1000000
  98              		.cfi_endproc
  99              	.LFE1:
 100              		.size	SelectChipOnOff, .-SelectChipOnOff
 101              		.section	.text.SPI_WRITE,"ax",%progbits
 102              		.align	2
 103              		.global	SPI_WRITE
 104              		.thumb
 105              		.thumb_func
 106              		.type	SPI_WRITE, %function
 107              	SPI_WRITE:
 108              	.LFB2:
ARM GAS  C:\Users\rene_\AppData\Local\Temp\cctRgEGh.s 			page 5


 120:EVE_HAL.c     ****     } 
 121:EVE_HAL.c     ****         
 122:EVE_HAL.c     **** }
 123:EVE_HAL.c     **** 
 124:EVE_HAL.c     **** /***********************************************************************
 125:EVE_HAL.c     **** *! \fn			void SPI_WRITE (U8 wert)
 126:EVE_HAL.c     **** *  \brief		Transmit an 8 Bit value
 127:EVE_HAL.c     **** *  \param		U8 wert - value to send
 128:EVE_HAL.c     **** *  \exception	none
 129:EVE_HAL.c     **** *  \return		none
 130:EVE_HAL.c     **** ***********************************************************************/
 131:EVE_HAL.c     **** void SPI_WRITE (U8 wert){
 109              		.loc 1 131 0
 110              		.cfi_startproc
 111              		@ args = 0, pretend = 0, frame = 0
 112              		@ frame_needed = 0, uses_anonymous_args = 0
 113              	.LVL12:
 114 0000 08B5     		push	{r3, lr}
 115              		.cfi_def_cfa_offset 8
 116              		.cfi_offset 3, -8
 117              		.cfi_offset 14, -4
 132:EVE_HAL.c     ****     //send 8 BIT SPI here
 133:EVE_HAL.c     ****     SPI_EVE_WriteTxData(wert);
 118              		.loc 1 133 0
 119 0002 FFF7FEFF 		bl	SPI_EVE_WriteTxData
 120              	.LVL13:
 134:EVE_HAL.c     ****     //read 8 BIT SPI here
 135:EVE_HAL.c     ****     SPI_EVE_ReadRxData();
 121              		.loc 1 135 0
 122 0006 FFF7FEFF 		bl	SPI_EVE_ReadRxData
 123              	.LVL14:
 124 000a 08BD     		pop	{r3, pc}
 125              		.cfi_endproc
 126              	.LFE2:
 127              		.size	SPI_WRITE, .-SPI_WRITE
 128              		.section	.text.SPI_READ,"ax",%progbits
 129              		.align	2
 130              		.global	SPI_READ
 131              		.thumb
 132              		.thumb_func
 133              		.type	SPI_READ, %function
 134              	SPI_READ:
 135              	.LFB3:
 136:EVE_HAL.c     **** }  
 137:EVE_HAL.c     **** 
 138:EVE_HAL.c     **** /***********************************************************************
 139:EVE_HAL.c     **** *! \fn			U8 SPI_READ(void)
 140:EVE_HAL.c     **** *  \brief		read an 8 Bit value
 141:EVE_HAL.c     **** *  \param		U8 wert - value to send
 142:EVE_HAL.c     **** *  \exception	none
 143:EVE_HAL.c     **** *  \return		none
 144:EVE_HAL.c     **** ***********************************************************************/
 145:EVE_HAL.c     **** U8 SPI_READ(void){
 136              		.loc 1 145 0
 137              		.cfi_startproc
 138              		@ args = 0, pretend = 0, frame = 0
 139              		@ frame_needed = 0, uses_anonymous_args = 0
ARM GAS  C:\Users\rene_\AppData\Local\Temp\cctRgEGh.s 			page 6


 140 0000 08B5     		push	{r3, lr}
 141              		.cfi_def_cfa_offset 8
 142              		.cfi_offset 3, -8
 143              		.cfi_offset 14, -4
 146:EVE_HAL.c     ****    
 147:EVE_HAL.c     ****    //send 8 BIT SPI here
 148:EVE_HAL.c     ****    SPI_EVE_WriteTxData(0xFF);
 144              		.loc 1 148 0
 145 0002 FF20     		movs	r0, #255
 146 0004 FFF7FEFF 		bl	SPI_EVE_WriteTxData
 147              	.LVL15:
 149:EVE_HAL.c     ****    //read 8 BIT SPI here
 150:EVE_HAL.c     ****    return (SPI_EVE_ReadRxData());
 148              		.loc 1 150 0
 149 0008 FFF7FEFF 		bl	SPI_EVE_ReadRxData
 150              	.LVL16:
 151:EVE_HAL.c     **** }  
 151              		.loc 1 151 0
 152 000c 08BD     		pop	{r3, pc}
 153              		.cfi_endproc
 154              	.LFE3:
 155              		.size	SPI_READ, .-SPI_READ
 156 000e 00BF     		.section	.text.SPI2TransmitWord,"ax",%progbits
 157              		.align	2
 158              		.global	SPI2TransmitWord
 159              		.thumb
 160              		.thumb_func
 161              		.type	SPI2TransmitWord, %function
 162              	SPI2TransmitWord:
 163              	.LFB4:
 152:EVE_HAL.c     **** 
 153:EVE_HAL.c     **** 
 154:EVE_HAL.c     **** /***********************************************************************
 155:EVE_HAL.c     **** *! \fn			void SPI2TransmitWord(U16 wert)
 156:EVE_HAL.c     **** *  \brief		send an 16 Bit value
 157:EVE_HAL.c     **** *  \param		U16 wert - value to send
 158:EVE_HAL.c     **** *  \exception	none
 159:EVE_HAL.c     **** *  \return		none
 160:EVE_HAL.c     **** ***********************************************************************/
 161:EVE_HAL.c     **** void SPI2TransmitWord(U16 wert){
 164              		.loc 1 161 0
 165              		.cfi_startproc
 166              		@ args = 0, pretend = 0, frame = 0
 167              		@ frame_needed = 0, uses_anonymous_args = 0
 168              	.LVL17:
 169 0000 10B5     		push	{r4, lr}
 170              		.cfi_def_cfa_offset 8
 171              		.cfi_offset 4, -8
 172              		.cfi_offset 14, -4
 173 0002 0446     		mov	r4, r0
 162:EVE_HAL.c     ****      //Low byte first
 163:EVE_HAL.c     ****     SPI_EVE_WriteTxData(Low_Byte(wert));
 174              		.loc 1 163 0
 175 0004 C0B2     		uxtb	r0, r0
 176              	.LVL18:
 177 0006 FFF7FEFF 		bl	SPI_EVE_WriteTxData
 178              	.LVL19:
ARM GAS  C:\Users\rene_\AppData\Local\Temp\cctRgEGh.s 			page 7


 164:EVE_HAL.c     ****     SPI_EVE_WriteTxData(High_Byte(wert));
 179              		.loc 1 164 0
 180 000a C4F30720 		ubfx	r0, r4, #8, #8
 181 000e FFF7FEFF 		bl	SPI_EVE_WriteTxData
 182              	.LVL20:
 183 0012 10BD     		pop	{r4, pc}
 184              		.cfi_endproc
 185              	.LFE4:
 186              		.size	SPI2TransmitWord, .-SPI2TransmitWord
 187              		.section	.text.SPI2TransmitByte,"ax",%progbits
 188              		.align	2
 189              		.global	SPI2TransmitByte
 190              		.thumb
 191              		.thumb_func
 192              		.type	SPI2TransmitByte, %function
 193              	SPI2TransmitByte:
 194              	.LFB5:
 165:EVE_HAL.c     **** }
 166:EVE_HAL.c     **** 
 167:EVE_HAL.c     **** /***********************************************************************
 168:EVE_HAL.c     **** *! \fn			void SPI2TransmitByte(U8 wert)
 169:EVE_HAL.c     **** *  \brief		send an read an 8Bit value
 170:EVE_HAL.c     **** *  \param		U8 wert - value to send
 171:EVE_HAL.c     **** *  \exception	none
 172:EVE_HAL.c     **** *  \return		none
 173:EVE_HAL.c     **** ***********************************************************************/
 174:EVE_HAL.c     **** void SPI2TransmitByte(U8 wert){
 195              		.loc 1 174 0
 196              		.cfi_startproc
 197              		@ args = 0, pretend = 0, frame = 0
 198              		@ frame_needed = 0, uses_anonymous_args = 0
 199              	.LVL21:
 200 0000 08B5     		push	{r3, lr}
 201              		.cfi_def_cfa_offset 8
 202              		.cfi_offset 3, -8
 203              		.cfi_offset 14, -4
 175:EVE_HAL.c     ****     SPI_WRITE (wert);
 204              		.loc 1 175 0
 205 0002 FFF7FEFF 		bl	SPI_WRITE
 206              	.LVL22:
 207 0006 08BD     		pop	{r3, pc}
 208              		.cfi_endproc
 209              	.LFE5:
 210              		.size	SPI2TransmitByte, .-SPI2TransmitByte
 211              		.section	.text.SPI2ReceiveByte,"ax",%progbits
 212              		.align	2
 213              		.global	SPI2ReceiveByte
 214              		.thumb
 215              		.thumb_func
 216              		.type	SPI2ReceiveByte, %function
 217              	SPI2ReceiveByte:
 218              	.LFB6:
 176:EVE_HAL.c     **** }
 177:EVE_HAL.c     **** 
 178:EVE_HAL.c     **** /***********************************************************************
 179:EVE_HAL.c     **** *! \fn			U8 SPI2ReceiveByte(void)
 180:EVE_HAL.c     **** *  \brief		read an 8Bit value
ARM GAS  C:\Users\rene_\AppData\Local\Temp\cctRgEGh.s 			page 8


 181:EVE_HAL.c     **** *  \param		none
 182:EVE_HAL.c     **** *  \exception	none
 183:EVE_HAL.c     **** *  \return		8 Bit SPI value
 184:EVE_HAL.c     **** ***********************************************************************/
 185:EVE_HAL.c     **** U8 SPI2ReceiveByte(void){
 219              		.loc 1 185 0
 220              		.cfi_startproc
 221              		@ args = 0, pretend = 0, frame = 0
 222              		@ frame_needed = 0, uses_anonymous_args = 0
 223 0000 08B5     		push	{r3, lr}
 224              		.cfi_def_cfa_offset 8
 225              		.cfi_offset 3, -8
 226              		.cfi_offset 14, -4
 186:EVE_HAL.c     ****     SPI_WRITE (0xFF);
 227              		.loc 1 186 0
 228 0002 FF20     		movs	r0, #255
 229 0004 FFF7FEFF 		bl	SPI_WRITE
 230              	.LVL23:
 187:EVE_HAL.c     ****     return (SPI_EVE_ReadRxData());
 231              		.loc 1 187 0
 232 0008 FFF7FEFF 		bl	SPI_EVE_ReadRxData
 233              	.LVL24:
 188:EVE_HAL.c     **** } 
 234              		.loc 1 188 0
 235 000c 08BD     		pop	{r3, pc}
 236              		.cfi_endproc
 237              	.LFE6:
 238              		.size	SPI2ReceiveByte, .-SPI2ReceiveByte
 239 000e 00BF     		.section	.text.host_command,"ax",%progbits
 240              		.align	2
 241              		.global	host_command
 242              		.thumb
 243              		.thumb_func
 244              		.type	host_command, %function
 245              	host_command:
 246              	.LFB7:
 189:EVE_HAL.c     **** 
 190:EVE_HAL.c     **** /***********************************************************************
 191:EVE_HAL.c     **** *! \fn			void host_command(U8 cmd)
 192:EVE_HAL.c     **** *  \brief		send an command
 193:EVE_HAL.c     **** *  \param		U8 cmd - command value
 194:EVE_HAL.c     **** *  \exception	none
 195:EVE_HAL.c     **** *  \return		none
 196:EVE_HAL.c     **** ***********************************************************************/
 197:EVE_HAL.c     **** void host_command(U8 cmd){
 247              		.loc 1 197 0
 248              		.cfi_startproc
 249              		@ args = 0, pretend = 0, frame = 0
 250              		@ frame_needed = 0, uses_anonymous_args = 0
 251              	.LVL25:
 252 0000 10B5     		push	{r4, lr}
 253              		.cfi_def_cfa_offset 8
 254              		.cfi_offset 4, -8
 255              		.cfi_offset 14, -4
 256 0002 0446     		mov	r4, r0
 198:EVE_HAL.c     ****     SelectChipOnOff(ChipOn);
 257              		.loc 1 198 0
ARM GAS  C:\Users\rene_\AppData\Local\Temp\cctRgEGh.s 			page 9


 258 0004 0120     		movs	r0, #1
 259              	.LVL26:
 260 0006 FFF7FEFF 		bl	SelectChipOnOff
 261              	.LVL27:
 199:EVE_HAL.c     ****     SPI_WRITE(cmd); 
 262              		.loc 1 199 0
 263 000a 2046     		mov	r0, r4
 264 000c FFF7FEFF 		bl	SPI_WRITE
 265              	.LVL28:
 200:EVE_HAL.c     ****     SPI_WRITE(0);
 266              		.loc 1 200 0
 267 0010 0020     		movs	r0, #0
 268 0012 FFF7FEFF 		bl	SPI_WRITE
 269              	.LVL29:
 201:EVE_HAL.c     ****     SPI_WRITE(0);
 270              		.loc 1 201 0
 271 0016 0020     		movs	r0, #0
 272 0018 FFF7FEFF 		bl	SPI_WRITE
 273              	.LVL30:
 202:EVE_HAL.c     ****     SelectChipOnOff(ChipOff);
 274              		.loc 1 202 0
 275 001c 0020     		movs	r0, #0
 276 001e FFF7FEFF 		bl	SelectChipOnOff
 277              	.LVL31:
 278 0022 10BD     		pop	{r4, pc}
 279              		.cfi_endproc
 280              	.LFE7:
 281              		.size	host_command, .-host_command
 282              		.section	.text.wr8,"ax",%progbits
 283              		.align	2
 284              		.global	wr8
 285              		.thumb
 286              		.thumb_func
 287              		.type	wr8, %function
 288              	wr8:
 289              	.LFB8:
 203:EVE_HAL.c     **** }
 204:EVE_HAL.c     **** 
 205:EVE_HAL.c     **** /***********************************************************************
 206:EVE_HAL.c     **** *! \fn			void wr8(U32 address, U8 data)
 207:EVE_HAL.c     **** *  \brief		write an 8 Bit value to an adress
 208:EVE_HAL.c     **** *  \param		U32 address - address for the value
 209:EVE_HAL.c     **** *  \param		U8 data - data for the address
 210:EVE_HAL.c     **** *  \exception	none
 211:EVE_HAL.c     **** *  \return		none
 212:EVE_HAL.c     **** ***********************************************************************/
 213:EVE_HAL.c     **** void wr8(U32 address, U8 data){
 290              		.loc 1 213 0
 291              		.cfi_startproc
 292              		@ args = 0, pretend = 0, frame = 0
 293              		@ frame_needed = 0, uses_anonymous_args = 0
 294              	.LVL32:
 295 0000 38B5     		push	{r3, r4, r5, lr}
 296              		.cfi_def_cfa_offset 16
 297              		.cfi_offset 3, -16
 298              		.cfi_offset 4, -12
 299              		.cfi_offset 5, -8
ARM GAS  C:\Users\rene_\AppData\Local\Temp\cctRgEGh.s 			page 10


 300              		.cfi_offset 14, -4
 301 0002 0446     		mov	r4, r0
 302 0004 0D46     		mov	r5, r1
 214:EVE_HAL.c     ****     SelectChipOnOff(ChipOn);
 303              		.loc 1 214 0
 304 0006 0120     		movs	r0, #1
 305              	.LVL33:
 306 0008 FFF7FEFF 		bl	SelectChipOnOff
 307              	.LVL34:
 215:EVE_HAL.c     ****     SPI_WRITE (0x80|(address>>16));
 308              		.loc 1 215 0
 309 000c 200C     		lsrs	r0, r4, #16
 310 000e 60F07F00 		orn	r0, r0, #127
 311 0012 C0B2     		uxtb	r0, r0
 312 0014 FFF7FEFF 		bl	SPI_WRITE
 313              	.LVL35:
 216:EVE_HAL.c     ****     SPI_WRITE (address>>8);
 314              		.loc 1 216 0
 315 0018 C4F30720 		ubfx	r0, r4, #8, #8
 316 001c FFF7FEFF 		bl	SPI_WRITE
 317              	.LVL36:
 217:EVE_HAL.c     ****     SPI_WRITE (address);
 318              		.loc 1 217 0
 319 0020 E0B2     		uxtb	r0, r4
 320 0022 FFF7FEFF 		bl	SPI_WRITE
 321              	.LVL37:
 218:EVE_HAL.c     ****     SPI_WRITE (data);
 322              		.loc 1 218 0
 323 0026 2846     		mov	r0, r5
 324 0028 FFF7FEFF 		bl	SPI_WRITE
 325              	.LVL38:
 219:EVE_HAL.c     ****     SelectChipOnOff(ChipOff);
 326              		.loc 1 219 0
 327 002c 0020     		movs	r0, #0
 328 002e FFF7FEFF 		bl	SelectChipOnOff
 329              	.LVL39:
 330 0032 38BD     		pop	{r3, r4, r5, pc}
 331              		.cfi_endproc
 332              	.LFE8:
 333              		.size	wr8, .-wr8
 334              		.section	.text.wr16,"ax",%progbits
 335              		.align	2
 336              		.global	wr16
 337              		.thumb
 338              		.thumb_func
 339              		.type	wr16, %function
 340              	wr16:
 341              	.LFB9:
 220:EVE_HAL.c     **** }
 221:EVE_HAL.c     **** 
 222:EVE_HAL.c     **** /***********************************************************************
 223:EVE_HAL.c     **** *! \fn			void wr16(U32 address, U16 data)
 224:EVE_HAL.c     **** *  \brief		write an 16 Bit value to an adress
 225:EVE_HAL.c     **** *  \param		U32 address - address for the value
 226:EVE_HAL.c     **** *  \param		U16 data - data for the address
 227:EVE_HAL.c     **** *  \exception	none
 228:EVE_HAL.c     **** *  \return		none
ARM GAS  C:\Users\rene_\AppData\Local\Temp\cctRgEGh.s 			page 11


 229:EVE_HAL.c     **** ***********************************************************************/
 230:EVE_HAL.c     **** void wr16(U32 address, U16 data){
 342              		.loc 1 230 0
 343              		.cfi_startproc
 344              		@ args = 0, pretend = 0, frame = 0
 345              		@ frame_needed = 0, uses_anonymous_args = 0
 346              	.LVL40:
 347 0000 38B5     		push	{r3, r4, r5, lr}
 348              		.cfi_def_cfa_offset 16
 349              		.cfi_offset 3, -16
 350              		.cfi_offset 4, -12
 351              		.cfi_offset 5, -8
 352              		.cfi_offset 14, -4
 353 0002 0446     		mov	r4, r0
 354 0004 0D46     		mov	r5, r1
 231:EVE_HAL.c     ****     SelectChipOnOff(ChipOn);
 355              		.loc 1 231 0
 356 0006 0120     		movs	r0, #1
 357              	.LVL41:
 358 0008 FFF7FEFF 		bl	SelectChipOnOff
 359              	.LVL42:
 232:EVE_HAL.c     ****     SPI_WRITE (0x80|(address>>16));
 360              		.loc 1 232 0
 361 000c 200C     		lsrs	r0, r4, #16
 362 000e 60F07F00 		orn	r0, r0, #127
 363 0012 C0B2     		uxtb	r0, r0
 364 0014 FFF7FEFF 		bl	SPI_WRITE
 365              	.LVL43:
 233:EVE_HAL.c     ****     SPI_WRITE (address>>8);
 366              		.loc 1 233 0
 367 0018 C4F30720 		ubfx	r0, r4, #8, #8
 368 001c FFF7FEFF 		bl	SPI_WRITE
 369              	.LVL44:
 234:EVE_HAL.c     ****     SPI_WRITE (address);
 370              		.loc 1 234 0
 371 0020 E0B2     		uxtb	r0, r4
 372 0022 FFF7FEFF 		bl	SPI_WRITE
 373              	.LVL45:
 235:EVE_HAL.c     ****     SPI2TransmitWord(data);
 374              		.loc 1 235 0
 375 0026 2846     		mov	r0, r5
 376 0028 FFF7FEFF 		bl	SPI2TransmitWord
 377              	.LVL46:
 236:EVE_HAL.c     ****     SelectChipOnOff(ChipOff);
 378              		.loc 1 236 0
 379 002c 0020     		movs	r0, #0
 380 002e FFF7FEFF 		bl	SelectChipOnOff
 381              	.LVL47:
 382 0032 38BD     		pop	{r3, r4, r5, pc}
 383              		.cfi_endproc
 384              	.LFE9:
 385              		.size	wr16, .-wr16
 386              		.section	.text.wr32,"ax",%progbits
 387              		.align	2
 388              		.global	wr32
 389              		.thumb
 390              		.thumb_func
ARM GAS  C:\Users\rene_\AppData\Local\Temp\cctRgEGh.s 			page 12


 391              		.type	wr32, %function
 392              	wr32:
 393              	.LFB10:
 237:EVE_HAL.c     **** }
 238:EVE_HAL.c     **** 
 239:EVE_HAL.c     **** /***********************************************************************
 240:EVE_HAL.c     **** *! \fn			void wr16(U32 address, U32 data)
 241:EVE_HAL.c     **** *  \brief		write an 32 Bit value to an adress
 242:EVE_HAL.c     **** *  \param		U32 address - address for the value
 243:EVE_HAL.c     **** *  \param		U32 data - data for the address
 244:EVE_HAL.c     **** *  \exception	none
 245:EVE_HAL.c     **** *  \return		none
 246:EVE_HAL.c     **** ***********************************************************************/
 247:EVE_HAL.c     **** void wr32(U32 address, U32 data){
 394              		.loc 1 247 0
 395              		.cfi_startproc
 396              		@ args = 0, pretend = 0, frame = 0
 397              		@ frame_needed = 0, uses_anonymous_args = 0
 398              	.LVL48:
 399 0000 38B5     		push	{r3, r4, r5, lr}
 400              		.cfi_def_cfa_offset 16
 401              		.cfi_offset 3, -16
 402              		.cfi_offset 4, -12
 403              		.cfi_offset 5, -8
 404              		.cfi_offset 14, -4
 405 0002 0446     		mov	r4, r0
 406 0004 0D46     		mov	r5, r1
 248:EVE_HAL.c     ****     SelectChipOnOff(ChipOn);
 407              		.loc 1 248 0
 408 0006 0120     		movs	r0, #1
 409              	.LVL49:
 410 0008 FFF7FEFF 		bl	SelectChipOnOff
 411              	.LVL50:
 249:EVE_HAL.c     ****     SPI_WRITE (0x80|(address>>16));
 412              		.loc 1 249 0
 413 000c 200C     		lsrs	r0, r4, #16
 414 000e 60F07F00 		orn	r0, r0, #127
 415 0012 C0B2     		uxtb	r0, r0
 416 0014 FFF7FEFF 		bl	SPI_WRITE
 417              	.LVL51:
 250:EVE_HAL.c     ****     SPI_WRITE (address>>8);
 418              		.loc 1 250 0
 419 0018 C4F30720 		ubfx	r0, r4, #8, #8
 420 001c FFF7FEFF 		bl	SPI_WRITE
 421              	.LVL52:
 251:EVE_HAL.c     ****     SPI_WRITE (address);
 422              		.loc 1 251 0
 423 0020 E0B2     		uxtb	r0, r4
 424 0022 FFF7FEFF 		bl	SPI_WRITE
 425              	.LVL53:
 252:EVE_HAL.c     ****     SPI2TransmitWord(data);
 426              		.loc 1 252 0
 427 0026 2846     		mov	r0, r5
 428 0028 FFF7FEFF 		bl	SPI2TransmitWord
 429              	.LVL54:
 253:EVE_HAL.c     ****     SPI2TransmitWord(data>>16);
 430              		.loc 1 253 0
ARM GAS  C:\Users\rene_\AppData\Local\Temp\cctRgEGh.s 			page 13


 431 002c 280C     		lsrs	r0, r5, #16
 432 002e FFF7FEFF 		bl	SPI2TransmitWord
 433              	.LVL55:
 254:EVE_HAL.c     ****   
 255:EVE_HAL.c     ****     SelectChipOnOff(ChipOff);
 434              		.loc 1 255 0
 435 0032 0020     		movs	r0, #0
 436 0034 FFF7FEFF 		bl	SelectChipOnOff
 437              	.LVL56:
 438 0038 38BD     		pop	{r3, r4, r5, pc}
 439              		.cfi_endproc
 440              	.LFE10:
 441              		.size	wr32, .-wr32
 442 003a 00BF     		.section	.text.rd8,"ax",%progbits
 443              		.align	2
 444              		.global	rd8
 445              		.thumb
 446              		.thumb_func
 447              		.type	rd8, %function
 448              	rd8:
 449              	.LFB11:
 256:EVE_HAL.c     **** }
 257:EVE_HAL.c     **** 
 258:EVE_HAL.c     **** /***********************************************************************
 259:EVE_HAL.c     **** *! \fn			U8 rd8(U32 address)
 260:EVE_HAL.c     **** *  \brief		read an 8 Bit value to an adress
 261:EVE_HAL.c     **** *  \param		U32 address - address for the value	
 262:EVE_HAL.c     **** *  \exception	none
 263:EVE_HAL.c     **** *  \return		U8 data - data from the address
 264:EVE_HAL.c     **** ***********************************************************************/
 265:EVE_HAL.c     **** U8 rd8(U32 address){
 450              		.loc 1 265 0
 451              		.cfi_startproc
 452              		@ args = 0, pretend = 0, frame = 0
 453              		@ frame_needed = 0, uses_anonymous_args = 0
 454              	.LVL57:
 455 0000 10B5     		push	{r4, lr}
 456              		.cfi_def_cfa_offset 8
 457              		.cfi_offset 4, -8
 458              		.cfi_offset 14, -4
 459 0002 0446     		mov	r4, r0
 460              	.LVL58:
 266:EVE_HAL.c     ****     U8 data=0;
 267:EVE_HAL.c     ****     SelectChipOnOff(ChipOn);
 461              		.loc 1 267 0
 462 0004 0120     		movs	r0, #1
 463              	.LVL59:
 464 0006 FFF7FEFF 		bl	SelectChipOnOff
 465              	.LVL60:
 268:EVE_HAL.c     ****     SPI_WRITE (0x00|(address>>16));
 466              		.loc 1 268 0
 467 000a C4F30740 		ubfx	r0, r4, #16, #8
 468 000e FFF7FEFF 		bl	SPI_WRITE
 469              	.LVL61:
 269:EVE_HAL.c     ****     SPI_WRITE (address>>8);
 470              		.loc 1 269 0
 471 0012 C4F30720 		ubfx	r0, r4, #8, #8
ARM GAS  C:\Users\rene_\AppData\Local\Temp\cctRgEGh.s 			page 14


 472 0016 FFF7FEFF 		bl	SPI_WRITE
 473              	.LVL62:
 270:EVE_HAL.c     ****     SPI_WRITE (address);
 474              		.loc 1 270 0
 475 001a E0B2     		uxtb	r0, r4
 476 001c FFF7FEFF 		bl	SPI_WRITE
 477              	.LVL63:
 271:EVE_HAL.c     ****     SPI_WRITE (0x0);    //Dummybyte
 478              		.loc 1 271 0
 479 0020 0020     		movs	r0, #0
 480 0022 FFF7FEFF 		bl	SPI_WRITE
 481              	.LVL64:
 272:EVE_HAL.c     ****     data=SPI_READ();
 482              		.loc 1 272 0
 483 0026 FFF7FEFF 		bl	SPI_READ
 484              	.LVL65:
 485 002a 0446     		mov	r4, r0
 486              	.LVL66:
 273:EVE_HAL.c     ****   
 274:EVE_HAL.c     ****     SelectChipOnOff(ChipOff);
 487              		.loc 1 274 0
 488 002c 0020     		movs	r0, #0
 489 002e FFF7FEFF 		bl	SelectChipOnOff
 490              	.LVL67:
 275:EVE_HAL.c     ****     return (data);
 276:EVE_HAL.c     **** }
 491              		.loc 1 276 0
 492 0032 2046     		mov	r0, r4
 493 0034 10BD     		pop	{r4, pc}
 494              		.cfi_endproc
 495              	.LFE11:
 496              		.size	rd8, .-rd8
 497 0036 00BF     		.section	.text.rd16,"ax",%progbits
 498              		.align	2
 499              		.global	rd16
 500              		.thumb
 501              		.thumb_func
 502              		.type	rd16, %function
 503              	rd16:
 504              	.LFB12:
 277:EVE_HAL.c     **** 
 278:EVE_HAL.c     **** /***********************************************************************
 279:EVE_HAL.c     **** *! \fn			U16 rd16(U32 address)
 280:EVE_HAL.c     **** *  \brief		read an 16 Bit value to an adress
 281:EVE_HAL.c     **** *  \param		U16 address - address for the value	
 282:EVE_HAL.c     **** *  \exception	none
 283:EVE_HAL.c     **** *  \return		U16 data - data from the address
 284:EVE_HAL.c     **** ***********************************************************************/
 285:EVE_HAL.c     **** U16 rd16(U32 address){
 505              		.loc 1 285 0
 506              		.cfi_startproc
 507              		@ args = 0, pretend = 0, frame = 0
 508              		@ frame_needed = 0, uses_anonymous_args = 0
 509              	.LVL68:
 510 0000 10B5     		push	{r4, lr}
 511              		.cfi_def_cfa_offset 8
 512              		.cfi_offset 4, -8
ARM GAS  C:\Users\rene_\AppData\Local\Temp\cctRgEGh.s 			page 15


 513              		.cfi_offset 14, -4
 514 0002 0446     		mov	r4, r0
 515              	.LVL69:
 286:EVE_HAL.c     ****     U32 data=0;
 287:EVE_HAL.c     ****     SelectChipOnOff(ChipOn);
 516              		.loc 1 287 0
 517 0004 0120     		movs	r0, #1
 518              	.LVL70:
 519 0006 FFF7FEFF 		bl	SelectChipOnOff
 520              	.LVL71:
 288:EVE_HAL.c     ****     SPI_WRITE (0x00|(address>>16));
 521              		.loc 1 288 0
 522 000a C4F30740 		ubfx	r0, r4, #16, #8
 523 000e FFF7FEFF 		bl	SPI_WRITE
 524              	.LVL72:
 289:EVE_HAL.c     ****     SPI_WRITE (address>>8);
 525              		.loc 1 289 0
 526 0012 C4F30720 		ubfx	r0, r4, #8, #8
 527 0016 FFF7FEFF 		bl	SPI_WRITE
 528              	.LVL73:
 290:EVE_HAL.c     ****     SPI_WRITE (address);
 529              		.loc 1 290 0
 530 001a E0B2     		uxtb	r0, r4
 531 001c FFF7FEFF 		bl	SPI_WRITE
 532              	.LVL74:
 291:EVE_HAL.c     ****     SPI_WRITE (0x0);    //Dummybyte
 533              		.loc 1 291 0
 534 0020 0020     		movs	r0, #0
 535 0022 FFF7FEFF 		bl	SPI_WRITE
 536              	.LVL75:
 292:EVE_HAL.c     ****     data=SPI_READ();
 537              		.loc 1 292 0
 538 0026 FFF7FEFF 		bl	SPI_READ
 539              	.LVL76:
 540 002a 0446     		mov	r4, r0
 541              	.LVL77:
 293:EVE_HAL.c     ****     data|=SPI_READ()<<8;;
 542              		.loc 1 293 0
 543 002c FFF7FEFF 		bl	SPI_READ
 544              	.LVL78:
 545 0030 44EA0024 		orr	r4, r4, r0, lsl #8
 546              	.LVL79:
 294:EVE_HAL.c     ****   
 295:EVE_HAL.c     ****     SelectChipOnOff(ChipOff);
 547              		.loc 1 295 0
 548 0034 0020     		movs	r0, #0
 549 0036 FFF7FEFF 		bl	SelectChipOnOff
 550              	.LVL80:
 296:EVE_HAL.c     ****     return (data);
 297:EVE_HAL.c     **** }
 551              		.loc 1 297 0
 552 003a 2046     		mov	r0, r4
 553 003c 10BD     		pop	{r4, pc}
 554              		.cfi_endproc
 555              	.LFE12:
 556              		.size	rd16, .-rd16
 557 003e 00BF     		.section	.text.rd32,"ax",%progbits
ARM GAS  C:\Users\rene_\AppData\Local\Temp\cctRgEGh.s 			page 16


 558              		.align	2
 559              		.global	rd32
 560              		.thumb
 561              		.thumb_func
 562              		.type	rd32, %function
 563              	rd32:
 564              	.LFB13:
 298:EVE_HAL.c     **** 
 299:EVE_HAL.c     **** /***********************************************************************
 300:EVE_HAL.c     **** *! \fn			U32 rd32(U32 address)
 301:EVE_HAL.c     **** *  \brief		read an 32 Bit value to an adress
 302:EVE_HAL.c     **** *  \param		U16 address - address for the value	
 303:EVE_HAL.c     **** *  \exception	none
 304:EVE_HAL.c     **** *  \return		U32 data - data from the address
 305:EVE_HAL.c     **** ***********************************************************************/
 306:EVE_HAL.c     **** U32 rd32(U32 address){
 565              		.loc 1 306 0
 566              		.cfi_startproc
 567              		@ args = 0, pretend = 0, frame = 0
 568              		@ frame_needed = 0, uses_anonymous_args = 0
 569              	.LVL81:
 570 0000 10B5     		push	{r4, lr}
 571              		.cfi_def_cfa_offset 8
 572              		.cfi_offset 4, -8
 573              		.cfi_offset 14, -4
 574 0002 0446     		mov	r4, r0
 575              	.LVL82:
 307:EVE_HAL.c     ****     U32 data=0;
 308:EVE_HAL.c     ****     SelectChipOnOff(ChipOn);
 576              		.loc 1 308 0
 577 0004 0120     		movs	r0, #1
 578              	.LVL83:
 579 0006 FFF7FEFF 		bl	SelectChipOnOff
 580              	.LVL84:
 309:EVE_HAL.c     ****     SPI_WRITE (0x00|(address>>16));
 581              		.loc 1 309 0
 582 000a C4F30740 		ubfx	r0, r4, #16, #8
 583 000e FFF7FEFF 		bl	SPI_WRITE
 584              	.LVL85:
 310:EVE_HAL.c     ****     SPI_WRITE (address>>8);
 585              		.loc 1 310 0
 586 0012 C4F30720 		ubfx	r0, r4, #8, #8
 587 0016 FFF7FEFF 		bl	SPI_WRITE
 588              	.LVL86:
 311:EVE_HAL.c     ****     SPI_WRITE (address);
 589              		.loc 1 311 0
 590 001a E0B2     		uxtb	r0, r4
 591 001c FFF7FEFF 		bl	SPI_WRITE
 592              	.LVL87:
 312:EVE_HAL.c     ****     SPI_WRITE (0xFF);    //Dummybyte
 593              		.loc 1 312 0
 594 0020 FF20     		movs	r0, #255
 595 0022 FFF7FEFF 		bl	SPI_WRITE
 596              	.LVL88:
 313:EVE_HAL.c     ****     data=SPI_READ();
 597              		.loc 1 313 0
 598 0026 FFF7FEFF 		bl	SPI_READ
ARM GAS  C:\Users\rene_\AppData\Local\Temp\cctRgEGh.s 			page 17


 599              	.LVL89:
 600 002a 0446     		mov	r4, r0
 601              	.LVL90:
 314:EVE_HAL.c     ****     data|=SPI_READ()<<8;;
 602              		.loc 1 314 0
 603 002c FFF7FEFF 		bl	SPI_READ
 604              	.LVL91:
 605 0030 44EA0024 		orr	r4, r4, r0, lsl #8
 606              	.LVL92:
 315:EVE_HAL.c     ****     data|=SPI_READ()<<16;
 607              		.loc 1 315 0
 608 0034 FFF7FEFF 		bl	SPI_READ
 609              	.LVL93:
 610 0038 44EA0044 		orr	r4, r4, r0, lsl #16
 611              	.LVL94:
 316:EVE_HAL.c     ****     data|=SPI_READ()<<24;
 612              		.loc 1 316 0
 613 003c FFF7FEFF 		bl	SPI_READ
 614              	.LVL95:
 615 0040 44EA0064 		orr	r4, r4, r0, lsl #24
 616              	.LVL96:
 317:EVE_HAL.c     ****   
 318:EVE_HAL.c     ****     SelectChipOnOff(ChipOff);
 617              		.loc 1 318 0
 618 0044 0020     		movs	r0, #0
 619 0046 FFF7FEFF 		bl	SelectChipOnOff
 620              	.LVL97:
 319:EVE_HAL.c     ****     return (data);
 320:EVE_HAL.c     **** }
 621              		.loc 1 320 0
 622 004a 2046     		mov	r0, r4
 623 004c 10BD     		pop	{r4, pc}
 624              		.cfi_endproc
 625              	.LFE13:
 626              		.size	rd32, .-rd32
 627 004e 00BF     		.section	.text.init_EVE_IO,"ax",%progbits
 628              		.align	2
 629              		.global	init_EVE_IO
 630              		.thumb
 631              		.thumb_func
 632              		.type	init_EVE_IO, %function
 633              	init_EVE_IO:
 634              	.LFB14:
 321:EVE_HAL.c     **** 
 322:EVE_HAL.c     **** /***********************************************************************
 323:EVE_HAL.c     **** *! \fn			init_EVE_IO(void)
 324:EVE_HAL.c     **** *  \brief		init Eve Hardware here
 325:EVE_HAL.c     **** *  \param		none	
 326:EVE_HAL.c     **** *  \exception	none
 327:EVE_HAL.c     **** *  \return		none
 328:EVE_HAL.c     **** ***********************************************************************/
 329:EVE_HAL.c     **** void init_EVE_IO(void){
 635              		.loc 1 329 0
 636              		.cfi_startproc
 637              		@ args = 0, pretend = 0, frame = 0
 638              		@ frame_needed = 0, uses_anonymous_args = 0
 639              		@ link register save eliminated.
ARM GAS  C:\Users\rene_\AppData\Local\Temp\cctRgEGh.s 			page 18


 640 0000 7047     		bx	lr
 641              		.cfi_endproc
 642              	.LFE14:
 643              		.size	init_EVE_IO, .-init_EVE_IO
 644 0002 00BF     		.section	.text.EVE_Power,"ax",%progbits
 645              		.align	2
 646              		.global	EVE_Power
 647              		.thumb
 648              		.thumb_func
 649              		.type	EVE_Power, %function
 650              	EVE_Power:
 651              	.LFB15:
 330:EVE_HAL.c     ****     
 331:EVE_HAL.c     **** }
 332:EVE_HAL.c     **** 
 333:EVE_HAL.c     **** /***********************************************************************
 334:EVE_HAL.c     **** *! \fn			void EVE_Power(U8 on_off)
 335:EVE_HAL.c     **** *  \brief		disable or enable the t800
 336:EVE_HAL.c     **** *  \param		none	
 337:EVE_HAL.c     **** *  \exception	none
 338:EVE_HAL.c     **** *  \return		none
 339:EVE_HAL.c     **** ***********************************************************************/
 340:EVE_HAL.c     **** void EVE_Power(U8 on_off){
 652              		.loc 1 340 0
 653              		.cfi_startproc
 654              		@ args = 0, pretend = 0, frame = 0
 655              		@ frame_needed = 0, uses_anonymous_args = 0
 656              	.LVL98:
 657              		.loc 1 340 0
 658 0000 08B5     		push	{r3, lr}
 659              		.cfi_def_cfa_offset 8
 660              		.cfi_offset 3, -8
 661              		.cfi_offset 14, -4
 341:EVE_HAL.c     ****     
 342:EVE_HAL.c     ****     nPD_EVE_Write(on_off&0x01);
 662              		.loc 1 342 0
 663 0002 00F00100 		and	r0, r0, #1
 664              	.LVL99:
 665 0006 FFF7FEFF 		bl	nPD_EVE_Write
 666              	.LVL100:
 667 000a 08BD     		pop	{r3, pc}
 668              		.cfi_endproc
 669              	.LFE15:
 670              		.size	EVE_Power, .-EVE_Power
 671              		.comm	cli,4,4
 672              		.comm	dli,4,4
 673              		.global	fdhdgg
 674              		.data
 675              		.align	2
 676              		.type	fdhdgg, %object
 677              		.size	fdhdgg, 12
 678              	fdhdgg:
 679 0000 3C       		.byte	60
 680 0001 50       		.byte	80
 681 0002 3E       		.byte	62
 682 0003 50       		.byte	80
 683 0004 40       		.byte	64
ARM GAS  C:\Users\rene_\AppData\Local\Temp\cctRgEGh.s 			page 19


 684 0005 50       		.byte	80
 685 0006 41       		.byte	65
 686 0007 50       		.byte	80
 687 0008 43       		.byte	67
 688 0009 50       		.byte	80
 689 000a 00       		.byte	0
 690 000b 00       		.byte	0
 691              		.text
 692              	.Letext0:
 693              		.file 2 "Generated_Source\\PSoC5/SS_EVE.h"
 694              		.file 3 "Generated_Source\\PSoC5/SPI_EVE.h"
 695              		.file 4 "Generated_Source\\PSoC5/nPD_EVE.h"
 696              		.file 5 "EVE_Config.h"